
avr-calc-8515.elf:     file format elf32-avr

Sections:
Idx Name          Size      VMA       LMA       File off  Algn
  0 .text         00001898  00000000  00000000  00000094  2**1
                  CONTENTS, ALLOC, LOAD, READONLY, CODE
  1 .data         00000144  00800060  00001898  0000192c  2**0
                  CONTENTS, ALLOC, LOAD, DATA
  2 .bss          00000021  008001a4  008001a4  00001a70  2**0
                  ALLOC
  3 .stab         00001104  00000000  00000000  00001a70  2**2
                  CONTENTS, READONLY, DEBUGGING
  4 .stabstr      00000110  00000000  00000000  00002b74  2**0
                  CONTENTS, READONLY, DEBUGGING
  5 .debug_aranges 00000200  00000000  00000000  00002c84  2**0
                  CONTENTS, READONLY, DEBUGGING
  6 .debug_pubnames 00000332  00000000  00000000  00002e84  2**0
                  CONTENTS, READONLY, DEBUGGING
  7 .debug_info   00002a4b  00000000  00000000  000031b6  2**0
                  CONTENTS, READONLY, DEBUGGING
  8 .debug_abbrev 00001514  00000000  00000000  00005c01  2**0
                  CONTENTS, READONLY, DEBUGGING
  9 .debug_line   00002202  00000000  00000000  00007115  2**0
                  CONTENTS, READONLY, DEBUGGING
 10 .debug_frame  000002f0  00000000  00000000  00009318  2**2
                  CONTENTS, READONLY, DEBUGGING
 11 .debug_str    0000063a  00000000  00000000  00009608  2**0
                  CONTENTS, READONLY, DEBUGGING
 12 .debug_loc    00001546  00000000  00000000  00009c42  2**0
                  CONTENTS, READONLY, DEBUGGING
 13 .debug_pubtypes 0000061e  00000000  00000000  0000b188  2**0
                  CONTENTS, READONLY, DEBUGGING
 14 .debug_ranges 000000f0  00000000  00000000  0000b7a6  2**0
                  CONTENTS, READONLY, DEBUGGING

Disassembly of section .text:

00000000 <__vectors>:
       0:	8d c0       	rjmp	.+282    	; 0x11c <__ctors_end>
       2:	a7 c0       	rjmp	.+334    	; 0x152 <__bad_interrupt>
       4:	a6 c0       	rjmp	.+332    	; 0x152 <__bad_interrupt>
       6:	a5 c0       	rjmp	.+330    	; 0x152 <__bad_interrupt>
       8:	a4 c0       	rjmp	.+328    	; 0x152 <__bad_interrupt>
       a:	a3 c0       	rjmp	.+326    	; 0x152 <__bad_interrupt>
       c:	a2 c0       	rjmp	.+324    	; 0x152 <__bad_interrupt>
       e:	a1 c0       	rjmp	.+322    	; 0x152 <__bad_interrupt>
      10:	a0 c0       	rjmp	.+320    	; 0x152 <__bad_interrupt>
      12:	9f c0       	rjmp	.+318    	; 0x152 <__bad_interrupt>
      14:	9e c0       	rjmp	.+316    	; 0x152 <__bad_interrupt>
      16:	9d c0       	rjmp	.+314    	; 0x152 <__bad_interrupt>
      18:	9c c0       	rjmp	.+312    	; 0x152 <__bad_interrupt>
      1a:	9b c0       	rjmp	.+310    	; 0x152 <__bad_interrupt>
      1c:	9a c0       	rjmp	.+308    	; 0x152 <__bad_interrupt>
      1e:	99 c0       	rjmp	.+306    	; 0x152 <__bad_interrupt>
      20:	98 c0       	rjmp	.+304    	; 0x152 <__bad_interrupt>
      22:	00 40       	sbci	r16, 0x00	; 0
      24:	7a 10       	cpse	r7, r10
      26:	f3 5a       	subi	r31, 0xA3	; 163
      28:	00 a0       	ldd	r0, Z+32	; 0x20
      2a:	72 4e       	sbci	r23, 0xE2	; 226
      2c:	18 09       	sbc	r17, r8
      2e:	00 10       	cpse	r0, r0
      30:	a5 d4       	rcall	.+2378   	; 0x97c <_fpadd_parts+0x196>
      32:	e8 00       	.word	0x00e8	; ????
      34:	00 e8       	ldi	r16, 0x80	; 128
      36:	76 48       	sbci	r23, 0x86	; 134
      38:	17 00       	.word	0x0017	; ????
      3a:	00 e4       	ldi	r16, 0x40	; 64
      3c:	0b 54       	subi	r16, 0x4B	; 75
      3e:	02 00       	.word	0x0002	; ????
      40:	00 ca       	rjmp	.-3072   	; 0xfffff442 <__eeprom_end+0xff7ef442>
      42:	9a 3b       	cpi	r25, 0xBA	; 186
      44:	00 00       	nop
      46:	00 e1       	ldi	r16, 0x10	; 16
      48:	f5 05       	cpc	r31, r5
      4a:	00 00       	nop
      4c:	80 96       	adiw	r24, 0x20	; 32
      4e:	98 00       	.word	0x0098	; ????
      50:	00 00       	nop
      52:	40 42       	sbci	r20, 0x20	; 32
      54:	0f 00       	.word	0x000f	; ????
      56:	00 00       	nop
      58:	a0 86       	std	Z+8, r10	; 0x08
      5a:	01 00       	.word	0x0001	; ????
      5c:	00 00       	nop
      5e:	10 27       	eor	r17, r16
      60:	00 00       	nop
      62:	00 00       	nop
      64:	e8 03       	fmulsu	r22, r16
      66:	00 00       	nop
      68:	00 00       	nop
      6a:	64 00       	.word	0x0064	; ????
      6c:	00 00       	nop
      6e:	00 00       	nop
      70:	0a 00       	.word	0x000a	; ????
      72:	00 00       	nop
      74:	00 00       	nop
      76:	01 00       	.word	0x0001	; ????
      78:	00 00       	nop
      7a:	00 00       	nop
      7c:	2c 76       	andi	r18, 0x6C	; 108
      7e:	d8 88       	ldd	r13, Y+16	; 0x10
      80:	dc 67       	ori	r29, 0x7C	; 124
      82:	4f 08       	sbc	r4, r15
      84:	23 df       	rcall	.-442    	; 0xfffffecc <__eeprom_end+0xff7efecc>
      86:	c1 df       	rcall	.-126    	; 0xa <__zero_reg__+0x9>
      88:	ae 59       	subi	r26, 0x9E	; 158
      8a:	e1 b1       	in	r30, 0x01	; 1
      8c:	b7 96       	adiw	r30, 0x27	; 39
      8e:	e5 e3       	ldi	r30, 0x35	; 53
      90:	e4 53       	subi	r30, 0x34	; 52
      92:	c6 3a       	cpi	r28, 0xA6	; 166
      94:	e6 51       	subi	r30, 0x16	; 22
      96:	99 76       	andi	r25, 0x69	; 105
      98:	96 e8       	ldi	r25, 0x86	; 134
      9a:	e6 c2       	rjmp	.+1484   	; 0x668 <decide+0x28e>
      9c:	84 26       	eor	r8, r20
      9e:	eb 89       	ldd	r30, Y+19	; 0x13
      a0:	8c 9b       	sbis	0x11, 4	; 17
      a2:	62 ed       	ldi	r22, 0xD2	; 210
      a4:	40 7c       	andi	r20, 0xC0	; 192
      a6:	6f fc       	.word	0xfc6f	; ????
      a8:	ef bc       	out	0x2f, r14	; 47
      aa:	9c 9f       	mul	r25, r28
      ac:	40 f2       	brcs	.-112    	; 0x3e <__SP_H__>
      ae:	ba a5       	ldd	r27, Y+42	; 0x2a
      b0:	6f a5       	ldd	r22, Y+47	; 0x2f
      b2:	f4 90       	lpm	r15, Z+
      b4:	05 5a       	subi	r16, 0xA5	; 165
      b6:	2a f7       	brpl	.-54     	; 0x82 <__SREG__+0x43>
      b8:	5c 93       	st	X, r21
      ba:	6b 6c       	ori	r22, 0xCB	; 203
      bc:	f9 67       	ori	r31, 0x79	; 121
      be:	6d c1       	rjmp	.+730    	; 0x39a <reset+0x14>
      c0:	1b fc       	.word	0xfc1b	; ????
      c2:	e0 e4       	ldi	r30, 0x40	; 64
      c4:	0d 47       	sbci	r16, 0x7D	; 125
      c6:	fe f5       	brtc	.+126    	; 0x146 <.do_clear_bss_loop>
      c8:	20 e6       	ldi	r18, 0x60	; 96
      ca:	b5 00       	.word	0x00b5	; ????
      cc:	d0 ed       	ldi	r29, 0xD0	; 208
      ce:	90 2e       	mov	r9, r16
      d0:	03 00       	.word	0x0003	; ????
      d2:	94 35       	cpi	r25, 0x54	; 84
      d4:	77 05       	cpc	r23, r7
      d6:	00 80       	ld	r0, Z
      d8:	84 1e       	adc	r8, r20
      da:	08 00       	.word	0x0008	; ????
      dc:	00 20       	and	r0, r0
      de:	4e 0a       	sbc	r4, r30
      e0:	00 00       	nop
      e2:	00 c8       	rjmp	.-4096   	; 0xfffff0e4 <__eeprom_end+0xff7ef0e4>
      e4:	0c 33       	cpi	r16, 0x3C	; 60
      e6:	33 33       	cpi	r19, 0x33	; 51
      e8:	33 0f       	add	r19, r19
      ea:	98 6e       	ori	r25, 0xE8	; 232
      ec:	12 83       	std	Z+2, r17	; 0x02
      ee:	11 41       	sbci	r17, 0x11	; 17
      f0:	ef 8d       	ldd	r30, Y+31	; 0x1f
      f2:	21 14       	cp	r2, r1
      f4:	89 3b       	cpi	r24, 0xB9	; 185
      f6:	e6 55       	subi	r30, 0x56	; 86
      f8:	16 cf       	rjmp	.-468    	; 0xffffff26 <__eeprom_end+0xff7eff26>
      fa:	fe e6       	ldi	r31, 0x6E	; 110
      fc:	db 18       	sub	r13, r11
      fe:	d1 84       	ldd	r13, Z+9	; 0x09
     100:	4b 38       	cpi	r20, 0x8B	; 139
     102:	1b f7       	brvc	.-58     	; 0xca <__SREG__+0x8b>
     104:	7c 1d       	adc	r23, r12
     106:	90 1d       	adc	r25, r0
     108:	a4 bb       	out	0x14, r26	; 20
     10a:	e4 24       	eor	r14, r4
     10c:	20 32       	cpi	r18, 0x20	; 32
     10e:	84 72       	andi	r24, 0x24	; 36
     110:	5e 22       	and	r5, r30
     112:	81 00       	.word	0x0081	; ????
     114:	c9 f1       	breq	.+114    	; 0x188 <init_display+0x6>
     116:	24 ec       	ldi	r18, 0xC4	; 196
     118:	a1 e5       	ldi	r26, 0x51	; 81
     11a:	3d 27       	eor	r19, r29

0000011c <__ctors_end>:
     11c:	11 24       	eor	r1, r1
     11e:	1f be       	out	0x3f, r1	; 63
     120:	cf e5       	ldi	r28, 0x5F	; 95
     122:	d2 e0       	ldi	r29, 0x02	; 2
     124:	de bf       	out	0x3e, r29	; 62
     126:	cd bf       	out	0x3d, r28	; 61

00000128 <__do_copy_data>:
     128:	11 e0       	ldi	r17, 0x01	; 1
     12a:	a0 e6       	ldi	r26, 0x60	; 96
     12c:	b0 e0       	ldi	r27, 0x00	; 0
     12e:	e8 e9       	ldi	r30, 0x98	; 152
     130:	f8 e1       	ldi	r31, 0x18	; 24
     132:	02 c0       	rjmp	.+4      	; 0x138 <__do_copy_data+0x10>
     134:	05 90       	lpm	r0, Z+
     136:	0d 92       	st	X+, r0
     138:	a4 3a       	cpi	r26, 0xA4	; 164
     13a:	b1 07       	cpc	r27, r17
     13c:	d9 f7       	brne	.-10     	; 0x134 <__do_copy_data+0xc>

0000013e <__do_clear_bss>:
     13e:	11 e0       	ldi	r17, 0x01	; 1
     140:	a4 ea       	ldi	r26, 0xA4	; 164
     142:	b1 e0       	ldi	r27, 0x01	; 1
     144:	01 c0       	rjmp	.+2      	; 0x148 <.do_clear_bss_start>

00000146 <.do_clear_bss_loop>:
     146:	1d 92       	st	X+, r1

00000148 <.do_clear_bss_start>:
     148:	a5 3c       	cpi	r26, 0xC5	; 197
     14a:	b1 07       	cpc	r27, r17
     14c:	e1 f7       	brne	.-8      	; 0x146 <.do_clear_bss_loop>
     14e:	02 d0       	rcall	.+4      	; 0x154 <main>
     150:	a1 cb       	rjmp	.-2238   	; 0xfffff894 <__eeprom_end+0xff7ef894>

00000152 <__bad_interrupt>:
     152:	56 cf       	rjmp	.-340    	; 0x0 <__vectors>

00000154 <main>:
#include "calculator.h"

int main(void){

    init_calculator();
     154:	3a d3       	rcall	.+1652   	; 0x7ca <init_calculator>

	return 0;
}
     156:	80 e0       	ldi	r24, 0x00	; 0
     158:	90 e0       	ldi	r25, 0x00	; 0
     15a:	08 95       	ret

0000015c <trigger>:
}

//Функция генерирующая строб на линии E.
//По этому стробу производится запись команды/данных или чтение.
void trigger(){
    PORTC |= (1<<PC6); // Set PC6 (E).
     15c:	ae 9a       	sbi	0x15, 6	; 21
	#else
		//round up by default
		__ticks_dc = (uint32_t)(ceil(fabs(__tmp)));
	#endif

	__builtin_avr_delay_cycles(__ticks_dc);
     15e:	00 00       	nop
    _delay_us(1);
    PORTC &=~(1<<PC6); // Reset PC6 (E).
     160:	ae 98       	cbi	0x15, 6	; 21
     162:	00 00       	nop
	_delay_us(1);
}
     164:	08 95       	ret

00000166 <send_data>:
	_delay_us( 40 );
}

//Функция записи байта (символа) данных в lcd контроллер
void send_data(unsigned char data){
    PORTA = data;
     166:	8b bb       	out	0x1b, r24	; 27
    trigger();
     168:	f9 df       	rcall	.-14     	; 0x15c <trigger>
     16a:	8d e0       	ldi	r24, 0x0D	; 13
     16c:	8a 95       	dec	r24
     16e:	f1 f7       	brne	.-4      	; 0x16c <send_data+0x6>
     170:	00 00       	nop
	_delay_us( 40 );
}
     172:	08 95       	ret

00000174 <send_command>:
	PORTC |= (1<<PC6); // Set PC6 (E).
}

//Функция записи байта (символа) команды в lcd контроллер
void send_command(unsigned char command){
    PORTA = command;
     174:	8b bb       	out	0x1b, r24	; 27
    trigger();
     176:	f2 df       	rcall	.-28     	; 0x15c <trigger>
     178:	8d e0       	ldi	r24, 0x0D	; 13
     17a:	8a 95       	dec	r24
     17c:	f1 f7       	brne	.-4      	; 0x17a <send_command+0x6>
     17e:	00 00       	nop
	_delay_us( 40 );
}
     180:	08 95       	ret

00000182 <init_display>:

void trigger(void);

//Функция инициализации lcd контроллера hd44780
void init_display(){
    DDRC |= (1<<PC4)|(1<<PC6); 	// PC 4 is output for RS, 6 is output for Enable.
     182:	84 b3       	in	r24, 0x14	; 20
     184:	80 65       	ori	r24, 0x50	; 80
     186:	84 bb       	out	0x14, r24	; 20
    DDRA = 0xFF; 				// PA 0-7 is 8 bit data output bus.
     188:	8f ef       	ldi	r24, 0xFF	; 255
     18a:	8a bb       	out	0x1a, r24	; 26

	PORTC &=~(1<<PC6); // Reset PC6 (E).
     18c:	ae 98       	cbi	0x15, 6	; 21
	#else
		//round up by default
		__ticks_dc = (uint32_t)(ceil(fabs(__tmp)));
	#endif

	__builtin_avr_delay_cycles(__ticks_dc);
     18e:	85 ea       	ldi	r24, 0xA5	; 165
     190:	9e e0       	ldi	r25, 0x0E	; 14
     192:	01 97       	sbiw	r24, 0x01	; 1
     194:	f1 f7       	brne	.-4      	; 0x192 <init_display+0x10>
     196:	00 c0       	rjmp	.+0      	; 0x198 <init_display+0x16>
     198:	00 00       	nop

	_delay_ms(15); 

	send_command(0x38); // 2 line mode.
     19a:	88 e3       	ldi	r24, 0x38	; 56
     19c:	eb df       	rcall	.-42     	; 0x174 <send_command>
     19e:	81 ee       	ldi	r24, 0xE1	; 225
     1a0:	94 e0       	ldi	r25, 0x04	; 4
     1a2:	01 97       	sbiw	r24, 0x01	; 1
     1a4:	f1 f7       	brne	.-4      	; 0x1a2 <init_display+0x20>
     1a6:	00 c0       	rjmp	.+0      	; 0x1a8 <init_display+0x26>
     1a8:	00 00       	nop
	_delay_ms(5); 
	send_command(0x38); // 2 line mode.
     1aa:	88 e3       	ldi	r24, 0x38	; 56
     1ac:	e3 df       	rcall	.-58     	; 0x174 <send_command>
	#else
		//round up by default
		__ticks_dc = (uint32_t)(ceil(fabs(__tmp)));
	#endif

	__builtin_avr_delay_cycles(__ticks_dc);
     1ae:	91 e2       	ldi	r25, 0x21	; 33
     1b0:	9a 95       	dec	r25
     1b2:	f1 f7       	brne	.-4      	; 0x1b0 <init_display+0x2e>
     1b4:	00 00       	nop
	_delay_us( 100 ); 
	send_command(0x38); // 2 line mode.	
     1b6:	88 e3       	ldi	r24, 0x38	; 56
     1b8:	dd df       	rcall	.-70     	; 0x174 <send_command>

	send_command(0x0F);
     1ba:	8f e0       	ldi	r24, 0x0F	; 15
     1bc:	db df       	rcall	.-74     	; 0x174 <send_command>
	#else
		//round up by default
		__ticks_dc = (uint32_t)(ceil(fabs(__tmp)));
	#endif

	__builtin_avr_delay_cycles(__ticks_dc);
     1be:	83 ec       	ldi	r24, 0xC3	; 195
     1c0:	99 e0       	ldi	r25, 0x09	; 9
     1c2:	01 97       	sbiw	r24, 0x01	; 1
     1c4:	f1 f7       	brne	.-4      	; 0x1c2 <init_display+0x40>
     1c6:	00 c0       	rjmp	.+0      	; 0x1c8 <init_display+0x46>
     1c8:	00 00       	nop
	_delay_ms(10);
	send_command(0x01); 
     1ca:	81 e0       	ldi	r24, 0x01	; 1
     1cc:	d3 df       	rcall	.-90     	; 0x174 <send_command>
     1ce:	83 ec       	ldi	r24, 0xC3	; 195
     1d0:	99 e0       	ldi	r25, 0x09	; 9
     1d2:	01 97       	sbiw	r24, 0x01	; 1
     1d4:	f1 f7       	brne	.-4      	; 0x1d2 <init_display+0x50>
     1d6:	00 c0       	rjmp	.+0      	; 0x1d8 <init_display+0x56>
     1d8:	00 00       	nop
	_delay_ms(10);
	send_command(0x81); 
     1da:	81 e8       	ldi	r24, 0x81	; 129
     1dc:	cb df       	rcall	.-106    	; 0x174 <send_command>
     1de:	83 ec       	ldi	r24, 0xC3	; 195
     1e0:	99 e0       	ldi	r25, 0x09	; 9
     1e2:	01 97       	sbiw	r24, 0x01	; 1
     1e4:	f1 f7       	brne	.-4      	; 0x1e2 <init_display+0x60>
     1e6:	00 c0       	rjmp	.+0      	; 0x1e8 <init_display+0x66>
     1e8:	00 00       	nop
	_delay_ms(10);

	PORTC |= (1<<PC6); // Set PC6 (E).
     1ea:	ae 9a       	sbi	0x15, 6	; 21
}
     1ec:	08 95       	ret

000001ee <send_string>:
    PORTC &=~(1<<PC6); // Reset PC6 (E).
	_delay_us(1);
}

//Функция вывода строки
void send_string(const char *str){
     1ee:	ef 92       	push	r14
     1f0:	ff 92       	push	r15
     1f2:	cf 93       	push	r28
     1f4:	df 93       	push	r29
     1f6:	e8 2e       	mov	r14, r24
     1f8:	e7 01       	movw	r28, r14
     1fa:	7e 01       	movw	r14, r28
     1fc:	f9 2e       	mov	r15, r25
     1fe:	e7 01       	movw	r28, r14
    while(*str) send_data(*str++); // Send characters one by one.
     200:	01 c0       	rjmp	.+2      	; 0x204 <send_string+0x16>
     202:	b1 df       	rcall	.-158    	; 0x166 <send_data>
     204:	89 91       	ld	r24, Y+
     206:	88 23       	and	r24, r24
     208:	e1 f7       	brne	.-8      	; 0x202 <send_string+0x14>
}
     20a:	df 91       	pop	r29
     20c:	cf 91       	pop	r28
     20e:	ff 90       	pop	r15
     210:	ef 90       	pop	r14
     212:	08 95       	ret

00000214 <move_to>:

//Функция изменения текущей позиции курсора,
//x — номер символа в строке, y — номер строки
void move_to(unsigned char x, unsigned char y){
	unsigned char address = x;
	if ( y ) {
     214:	61 11       	cpse	r22, r1
    	address += 0x40;
     216:	80 5c       	subi	r24, 0xC0	; 192
  	}
	PORTC &=~(1<<PC4); // Reset PC4 (RS).
     218:	ac 98       	cbi	0x15, 4	; 21
    send_command(1<<7 | address);
     21a:	80 68       	ori	r24, 0x80	; 128
     21c:	ab df       	rcall	.-170    	; 0x174 <send_command>
	PORTC |=(1<<PC4); // Set PC4 (RS).
     21e:	ac 9a       	sbi	0x15, 4	; 21
}
     220:	08 95       	ret

00000222 <clear>:

void clear(){
	PORTC &=~(1<<PC4); // Reset PC4 (RS).
     222:	ac 98       	cbi	0x15, 4	; 21
    send_command(0x01);
     224:	81 e0       	ldi	r24, 0x01	; 1
     226:	a6 df       	rcall	.-180    	; 0x174 <send_command>
	PORTC |=(1<<PC4); // Set PC4 (RS).
     228:	ac 9a       	sbi	0x15, 4	; 21
}
     22a:	08 95       	ret

0000022c <init_keyboard>:
    {'1', '2', '3', '+', '-', 'D'},
    {'0', '.', 'm', 'p', 't', '='}
};

void init_keyboard() {
    DDRC |= 0x0F; // PB 0-3 output for rows.
     22c:	84 b3       	in	r24, 0x14	; 20
     22e:	8f 60       	ori	r24, 0x0F	; 15
     230:	84 bb       	out	0x14, r24	; 20
    DDRD &= 0xC0; // PC 0-5 input for columns.
     232:	81 b3       	in	r24, 0x11	; 17
     234:	80 7c       	andi	r24, 0xC0	; 192
     236:	81 bb       	out	0x11, r24	; 17
}
     238:	08 95       	ret

0000023a <scan_key>:

unsigned char scan_key() {
    while (1) {
        PORTD |= 0x3F;
        for(int i = 0;i<4;i++){
            PORTC = ~(1 << i);
     23a:	61 e0       	ldi	r22, 0x01	; 1
     23c:	70 e0       	ldi	r23, 0x00	; 0
    DDRD &= 0xC0; // PC 0-5 input for columns.
}

unsigned char scan_key() {
    while (1) {
        PORTD |= 0x3F;
     23e:	82 b3       	in	r24, 0x12	; 18
     240:	8f 63       	ori	r24, 0x3F	; 63
     242:	82 bb       	out	0x12, r24	; 18
        for(int i = 0;i<4;i++){
     244:	20 e0       	ldi	r18, 0x00	; 0
     246:	30 e0       	ldi	r19, 0x00	; 0
            PORTC = ~(1 << i);
     248:	cb 01       	movw	r24, r22
     24a:	02 2e       	mov	r0, r18
     24c:	02 c0       	rjmp	.+4      	; 0x252 <scan_key+0x18>
     24e:	88 0f       	add	r24, r24
     250:	99 1f       	adc	r25, r25
     252:	0a 94       	dec	r0
     254:	e2 f7       	brpl	.-8      	; 0x24e <scan_key+0x14>
     256:	80 95       	com	r24
     258:	85 bb       	out	0x15, r24	; 21
            for(int j = 0;j < 6;j++){
     25a:	80 e0       	ldi	r24, 0x00	; 0
     25c:	90 e0       	ldi	r25, 0x00	; 0
                if(bit_is_clear(PIND, j)){
     25e:	40 b3       	in	r20, 0x10	; 16
     260:	50 e0       	ldi	r21, 0x00	; 0
     262:	08 2e       	mov	r0, r24
     264:	02 c0       	rjmp	.+4      	; 0x26a <__stack+0xb>
     266:	55 95       	asr	r21
     268:	47 95       	ror	r20
     26a:	0a 94       	dec	r0
     26c:	e2 f7       	brpl	.-8      	; 0x266 <__stack+0x7>
     26e:	40 fd       	sbrc	r20, 0
     270:	23 c0       	rjmp	.+70     	; 0x2b8 <__stack+0x59>
     272:	41 e0       	ldi	r20, 0x01	; 1
     274:	50 e0       	ldi	r21, 0x00	; 0
     276:	08 2e       	mov	r0, r24
     278:	02 c0       	rjmp	.+4      	; 0x27e <__stack+0x1f>
     27a:	44 0f       	add	r20, r20
     27c:	55 1f       	adc	r21, r21
     27e:	0a 94       	dec	r0
     280:	e2 f7       	brpl	.-8      	; 0x27a <__stack+0x1b>
     282:	06 c0       	rjmp	.+12     	; 0x290 <__stack+0x31>
     284:	e3 ed       	ldi	r30, 0xD3	; 211
     286:	f0 e3       	ldi	r31, 0x30	; 48
     288:	31 97       	sbiw	r30, 0x01	; 1
     28a:	f1 f7       	brne	.-4      	; 0x288 <__stack+0x29>
     28c:	00 c0       	rjmp	.+0      	; 0x28e <__stack+0x2f>
     28e:	00 00       	nop
                    while(bit_is_clear(PIND, j)) _delay_ms(50);
     290:	60 b3       	in	r22, 0x10	; 16
     292:	70 e0       	ldi	r23, 0x00	; 0
     294:	64 23       	and	r22, r20
     296:	75 23       	and	r23, r21
     298:	61 15       	cp	r22, r1
     29a:	71 05       	cpc	r23, r1
     29c:	99 f3       	breq	.-26     	; 0x284 <__stack+0x25>
                    return keys[i][j];
     29e:	f9 01       	movw	r30, r18
     2a0:	ee 0f       	add	r30, r30
     2a2:	ff 1f       	adc	r31, r31
     2a4:	e2 0f       	add	r30, r18
     2a6:	f3 1f       	adc	r31, r19
     2a8:	ee 0f       	add	r30, r30
     2aa:	ff 1f       	adc	r31, r31
     2ac:	e8 0f       	add	r30, r24
     2ae:	f9 1f       	adc	r31, r25
     2b0:	e0 5a       	subi	r30, 0xA0	; 160
     2b2:	ff 4f       	sbci	r31, 0xFF	; 255
                }
            }
        }
    }
}
     2b4:	80 81       	ld	r24, Z
     2b6:	08 95       	ret
unsigned char scan_key() {
    while (1) {
        PORTD |= 0x3F;
        for(int i = 0;i<4;i++){
            PORTC = ~(1 << i);
            for(int j = 0;j < 6;j++){
     2b8:	01 96       	adiw	r24, 0x01	; 1
     2ba:	86 30       	cpi	r24, 0x06	; 6
     2bc:	91 05       	cpc	r25, r1
     2be:	79 f6       	brne	.-98     	; 0x25e <scan_key+0x24>
}

unsigned char scan_key() {
    while (1) {
        PORTD |= 0x3F;
        for(int i = 0;i<4;i++){
     2c0:	2f 5f       	subi	r18, 0xFF	; 255
     2c2:	3f 4f       	sbci	r19, 0xFF	; 255
     2c4:	24 30       	cpi	r18, 0x04	; 4
     2c6:	31 05       	cpc	r19, r1
     2c8:	09 f0       	breq	.+2      	; 0x2cc <__stack+0x6d>
     2ca:	be cf       	rjmp	.-132    	; 0x248 <scan_key+0xe>
     2cc:	b8 cf       	rjmp	.-144    	; 0x23e <scan_key+0x4>

000002ce <calculate>:

    reset();
    run();
}

double calculate(float m, char operator, float n) {
     2ce:	0f 93       	push	r16
     2d0:	1f 93       	push	r17
     2d2:	e4 2f       	mov	r30, r20
     2d4:	a9 01       	movw	r20, r18
     2d6:	98 01       	movw	r18, r16
    switch (operator) {
     2d8:	eb 32       	cpi	r30, 0x2B	; 43
     2da:	51 f0       	breq	.+20     	; 0x2f0 <calculate+0x22>
     2dc:	ec 32       	cpi	r30, 0x2C	; 44
     2de:	18 f4       	brcc	.+6      	; 0x2e6 <calculate+0x18>
     2e0:	ea 32       	cpi	r30, 0x2A	; 42
     2e2:	69 f4       	brne	.+26     	; 0x2fe <calculate+0x30>
     2e4:	09 c0       	rjmp	.+18     	; 0x2f8 <calculate+0x2a>
     2e6:	ed 32       	cpi	r30, 0x2D	; 45
     2e8:	29 f0       	breq	.+10     	; 0x2f4 <calculate+0x26>
     2ea:	ef 32       	cpi	r30, 0x2F	; 47
     2ec:	41 f4       	brne	.+16     	; 0x2fe <calculate+0x30>
     2ee:	06 c0       	rjmp	.+12     	; 0x2fc <calculate+0x2e>
    case '+':
        return r = m + n;
     2f0:	c2 d3       	rcall	.+1924   	; 0xa76 <__addsf3>
     2f2:	05 c0       	rjmp	.+10     	; 0x2fe <calculate+0x30>
    case '-':
        return r = m - n;
     2f4:	e7 d3       	rcall	.+1998   	; 0xac4 <__subsf3>
     2f6:	03 c0       	rjmp	.+6      	; 0x2fe <calculate+0x30>
    case '*':
        return r = m * n;
     2f8:	10 d4       	rcall	.+2080   	; 0xb1a <__mulsf3>
     2fa:	01 c0       	rjmp	.+2      	; 0x2fe <calculate+0x30>
    case '/':
        return r = m / n;
     2fc:	03 d5       	rcall	.+2566   	; 0xd04 <__divsf3>
    //case 'p':
    //    return r = pow(m,2);
    //case 't':
    //    return r = sqrt(m);
    }
    return r = m;
     2fe:	26 2f       	mov	r18, r22
     300:	37 2f       	mov	r19, r23
     302:	48 2f       	mov	r20, r24
     304:	59 2f       	mov	r21, r25
     306:	20 93 bb 01 	sts	0x01BB, r18
     30a:	30 93 bc 01 	sts	0x01BC, r19
     30e:	40 93 bd 01 	sts	0x01BD, r20
     312:	50 93 be 01 	sts	0x01BE, r21
}
     316:	1f 91       	pop	r17
     318:	0f 91       	pop	r16
     31a:	08 95       	ret

0000031c <show_result>:

void show_result() {
     31c:	ef 92       	push	r14
     31e:	ff 92       	push	r15
     320:	0f 93       	push	r16
     322:	1f 93       	push	r17
    move_to(0, 1);
     324:	80 e0       	ldi	r24, 0x00	; 0
     326:	61 e0       	ldi	r22, 0x01	; 1
     328:	75 df       	rcall	.-278    	; 0x214 <move_to>
    send_string("A=");
     32a:	88 e7       	ldi	r24, 0x78	; 120
     32c:	90 e0       	ldi	r25, 0x00	; 0
     32e:	5f df       	rcall	.-322    	; 0x1ee <send_string>
    char *data = buffer;
    if (r <= 999999999999)
     330:	e0 90 bb 01 	lds	r14, 0x01BB
     334:	f0 90 bc 01 	lds	r15, 0x01BC
     338:	00 91 bd 01 	lds	r16, 0x01BD
     33c:	10 91 be 01 	lds	r17, 0x01BE
     340:	c8 01       	movw	r24, r16
     342:	b7 01       	movw	r22, r14
     344:	25 ea       	ldi	r18, 0xA5	; 165
     346:	34 ed       	ldi	r19, 0xD4	; 212
     348:	48 e6       	ldi	r20, 0x68	; 104
     34a:	53 e5       	ldi	r21, 0x53	; 83
     34c:	af d5       	rcall	.+2910   	; 0xeac <__lesf2>
     34e:	18 16       	cp	r1, r24
     350:	4c f0       	brlt	.+18     	; 0x364 <show_result+0x48>
        dtostrf(r, -14, 12, buffer);
     352:	c8 01       	movw	r24, r16
     354:	b7 01       	movw	r22, r14
     356:	42 ef       	ldi	r20, 0xF2	; 242
     358:	2c e0       	ldi	r18, 0x0C	; 12
     35a:	04 ea       	ldi	r16, 0xA4	; 164
     35c:	11 e0       	ldi	r17, 0x01	; 1
     35e:	4d d8       	rcall	.-3942   	; 0xfffff3fa <__eeprom_end+0xff7ef3fa>
}

void show_result() {
    move_to(0, 1);
    send_string("A=");
    char *data = buffer;
     360:	c8 01       	movw	r24, r16
     362:	02 c0       	rjmp	.+4      	; 0x368 <show_result+0x4c>
    if (r <= 999999999999)
        dtostrf(r, -14, 12, buffer);
    else data = overflow;
     364:	8c e8       	ldi	r24, 0x8C	; 140
     366:	90 e0       	ldi	r25, 0x00	; 0
    send_string(data);
     368:	42 df       	rcall	.-380    	; 0x1ee <send_string>
    state = 4;
     36a:	84 e0       	ldi	r24, 0x04	; 4
     36c:	90 e0       	ldi	r25, 0x00	; 0
     36e:	90 93 ba 01 	sts	0x01BA, r25
     372:	80 93 b9 01 	sts	0x01B9, r24
}
     376:	1f 91       	pop	r17
     378:	0f 91       	pop	r16
     37a:	ff 90       	pop	r15
     37c:	ef 90       	pop	r14
     37e:	08 95       	ret

00000380 <send_digit>:

void send_digit(unsigned char digit) {
    send_data(digit + '0');
     380:	80 5d       	subi	r24, 0xD0	; 208
     382:	f1 de       	rcall	.-542    	; 0x166 <send_data>
}
     384:	08 95       	ret

00000386 <reset>:
        decide(scan_key(), is_dec_p, paw_p);
    }
}

void reset() {
    clear();
     386:	4d df       	rcall	.-358    	; 0x222 <clear>
    move_to(0, 0);
     388:	80 e0       	ldi	r24, 0x00	; 0
     38a:	60 e0       	ldi	r22, 0x00	; 0
     38c:	43 df       	rcall	.-378    	; 0x214 <move_to>
    r = a = b = op = state = count = 0;
     38e:	10 92 c0 01 	sts	0x01C0, r1
     392:	10 92 bf 01 	sts	0x01BF, r1
     396:	10 92 ba 01 	sts	0x01BA, r1
     39a:	10 92 b9 01 	sts	0x01B9, r1
     39e:	10 92 b4 01 	sts	0x01B4, r1
     3a2:	80 e0       	ldi	r24, 0x00	; 0
     3a4:	90 e0       	ldi	r25, 0x00	; 0
     3a6:	dc 01       	movw	r26, r24
     3a8:	80 93 b5 01 	sts	0x01B5, r24
     3ac:	90 93 b6 01 	sts	0x01B6, r25
     3b0:	a0 93 b7 01 	sts	0x01B7, r26
     3b4:	b0 93 b8 01 	sts	0x01B8, r27
     3b8:	80 93 c1 01 	sts	0x01C1, r24
     3bc:	90 93 c2 01 	sts	0x01C2, r25
     3c0:	a0 93 c3 01 	sts	0x01C3, r26
     3c4:	b0 93 c4 01 	sts	0x01C4, r27
     3c8:	80 93 bb 01 	sts	0x01BB, r24
     3cc:	90 93 bc 01 	sts	0x01BC, r25
     3d0:	a0 93 bd 01 	sts	0x01BD, r26
     3d4:	b0 93 be 01 	sts	0x01BE, r27
}
     3d8:	08 95       	ret

000003da <decide>:
2 - Middle Operator pressed, op.
3 - Input second operand, b.
4 - Result displayed.
*/

void decide(unsigned char key, bool* is_dec_p, int* paw_p) {
     3da:	6f 92       	push	r6
     3dc:	7f 92       	push	r7
     3de:	8f 92       	push	r8
     3e0:	9f 92       	push	r9
     3e2:	af 92       	push	r10
     3e4:	bf 92       	push	r11
     3e6:	cf 92       	push	r12
     3e8:	df 92       	push	r13
     3ea:	ff 92       	push	r15
     3ec:	0f 93       	push	r16
     3ee:	1f 93       	push	r17
     3f0:	cf 93       	push	r28
     3f2:	df 93       	push	r29
     3f4:	f8 2e       	mov	r15, r24
     3f6:	eb 01       	movw	r28, r22
    // Check if it is a digit.
    if (key >= '0' && key <= '9')
     3f8:	18 2f       	mov	r17, r24
     3fa:	10 53       	subi	r17, 0x30	; 48
                count++;
            }
            break;
        case 4:
            if (digit) {
                line[0] = ' ';
     3fc:	00 e2       	ldi	r16, 0x20	; 32
                line[1] = ' ';
                move_to(0, 0);
                send_string(line); // Clear 1st line.
                move_to(0, 0);
                a = b = op = count = 0;
     3fe:	0f 2e       	mov	r0, r31
     400:	f0 e0       	ldi	r31, 0x00	; 0
     402:	af 2e       	mov	r10, r31
     404:	f0 e0       	ldi	r31, 0x00	; 0
     406:	bf 2e       	mov	r11, r31
     408:	f0 e0       	ldi	r31, 0x00	; 0
     40a:	cf 2e       	mov	r12, r31
     40c:	f0 e0       	ldi	r31, 0x00	; 0
     40e:	df 2e       	mov	r13, r31
     410:	f0 2d       	mov	r31, r0
                state = 1;
     412:	81 e0       	ldi	r24, 0x01	; 1
     414:	68 2e       	mov	r6, r24
     416:	71 2c       	mov	r7, r1
4 - Result displayed.
*/

void decide(unsigned char key, bool* is_dec_p, int* paw_p) {
    // Check if it is a digit.
    if (key >= '0' && key <= '9')
     418:	1a 30       	cpi	r17, 0x0A	; 10
     41a:	08 f0       	brcs	.+2      	; 0x41e <decide+0x44>
     41c:	e9 c0       	rjmp	.+466    	; 0x5f0 <decide+0x216>
    {
		unsigned char digit = key - '0'; // '2' --> 2

        switch (state) {
     41e:	80 91 b9 01 	lds	r24, 0x01B9
     422:	90 91 ba 01 	lds	r25, 0x01BA
     426:	82 30       	cpi	r24, 0x02	; 2
     428:	91 05       	cpc	r25, r1
     42a:	09 f4       	brne	.+2      	; 0x42e <decide+0x54>
     42c:	74 c0       	rjmp	.+232    	; 0x516 <decide+0x13c>
     42e:	83 30       	cpi	r24, 0x03	; 3
     430:	91 05       	cpc	r25, r1
     432:	38 f4       	brcc	.+14     	; 0x442 <decide+0x68>
     434:	00 97       	sbiw	r24, 0x00	; 0
     436:	71 f0       	breq	.+28     	; 0x454 <decide+0x7a>
     438:	81 30       	cpi	r24, 0x01	; 1
     43a:	91 05       	cpc	r25, r1
     43c:	09 f0       	breq	.+2      	; 0x440 <decide+0x66>
     43e:	9b c1       	rjmp	.+822    	; 0x776 <decide+0x39c>
     440:	12 c0       	rjmp	.+36     	; 0x466 <decide+0x8c>
     442:	83 30       	cpi	r24, 0x03	; 3
     444:	91 05       	cpc	r25, r1
     446:	09 f4       	brne	.+2      	; 0x44a <decide+0x70>
     448:	6e c0       	rjmp	.+220    	; 0x526 <decide+0x14c>
     44a:	84 30       	cpi	r24, 0x04	; 4
     44c:	91 05       	cpc	r25, r1
     44e:	09 f0       	breq	.+2      	; 0x452 <decide+0x78>
     450:	92 c1       	rjmp	.+804    	; 0x776 <decide+0x39c>
     452:	a3 c0       	rjmp	.+326    	; 0x59a <decide+0x1c0>
        case 0:
            if (digit) {
     454:	11 23       	and	r17, r17
     456:	39 f0       	breq	.+14     	; 0x466 <decide+0x8c>
                clear(); // Clear screen if input is non-zero.
     458:	e4 de       	rcall	.-568    	; 0x222 <clear>
                state = 1;
     45a:	81 e0       	ldi	r24, 0x01	; 1
     45c:	90 e0       	ldi	r25, 0x00	; 0
     45e:	90 93 ba 01 	sts	0x01BA, r25
     462:	80 93 b9 01 	sts	0x01B9, r24
            }
        case 1:
            if (count == 14) return; // You cannot fillup the screen with a single operand.
     466:	80 91 bf 01 	lds	r24, 0x01BF
     46a:	90 91 c0 01 	lds	r25, 0x01C0
     46e:	8e 30       	cpi	r24, 0x0E	; 14
     470:	91 05       	cpc	r25, r1
     472:	09 f4       	brne	.+2      	; 0x476 <decide+0x9c>
     474:	80 c1       	rjmp	.+768    	; 0x776 <decide+0x39c>

			if (*is_dec_p == 0) {
     476:	88 81       	ld	r24, Y
     478:	a1 2e       	mov	r10, r17
     47a:	bb 24       	eor	r11, r11
     47c:	88 23       	and	r24, r24
     47e:	d9 f4       	brne	.+54     	; 0x4b6 <decide+0xdc>
				//send_data('0');
            	a = a * 10 + digit;		// append to a
     480:	60 91 c1 01 	lds	r22, 0x01C1
     484:	70 91 c2 01 	lds	r23, 0x01C2
     488:	80 91 c3 01 	lds	r24, 0x01C3
     48c:	90 91 c4 01 	lds	r25, 0x01C4
     490:	20 e0       	ldi	r18, 0x00	; 0
     492:	30 e0       	ldi	r19, 0x00	; 0
     494:	40 e2       	ldi	r20, 0x20	; 32
     496:	51 e4       	ldi	r21, 0x41	; 65
     498:	40 d3       	rcall	.+1664   	; 0xb1a <__mulsf3>
     49a:	3b 01       	movw	r6, r22
     49c:	4c 01       	movw	r8, r24
     49e:	b5 01       	movw	r22, r10
     4a0:	88 27       	eor	r24, r24
     4a2:	77 fd       	sbrc	r23, 7
     4a4:	80 95       	com	r24
     4a6:	98 2f       	mov	r25, r24
     4a8:	2c d5       	rcall	.+2648   	; 0xf02 <__floatsisf>
     4aa:	9b 01       	movw	r18, r22
     4ac:	ac 01       	movw	r20, r24
     4ae:	c4 01       	movw	r24, r8
     4b0:	b3 01       	movw	r22, r6
     4b2:	e1 d2       	rcall	.+1474   	; 0xa76 <__addsf3>
     4b4:	1f c0       	rjmp	.+62     	; 0x4f4 <decide+0x11a>
			} 

			if (*is_dec_p == 1) {
				//send_data('1');
				a = (a * 10 + digit) / 10;		// append to a
     4b6:	60 91 c1 01 	lds	r22, 0x01C1
     4ba:	70 91 c2 01 	lds	r23, 0x01C2
     4be:	80 91 c3 01 	lds	r24, 0x01C3
     4c2:	90 91 c4 01 	lds	r25, 0x01C4
     4c6:	20 e0       	ldi	r18, 0x00	; 0
     4c8:	30 e0       	ldi	r19, 0x00	; 0
     4ca:	40 e2       	ldi	r20, 0x20	; 32
     4cc:	51 e4       	ldi	r21, 0x41	; 65
     4ce:	25 d3       	rcall	.+1610   	; 0xb1a <__mulsf3>
     4d0:	3b 01       	movw	r6, r22
     4d2:	4c 01       	movw	r8, r24
     4d4:	b5 01       	movw	r22, r10
     4d6:	88 27       	eor	r24, r24
     4d8:	77 fd       	sbrc	r23, 7
     4da:	80 95       	com	r24
     4dc:	98 2f       	mov	r25, r24
     4de:	11 d5       	rcall	.+2594   	; 0xf02 <__floatsisf>
     4e0:	9b 01       	movw	r18, r22
     4e2:	ac 01       	movw	r20, r24
     4e4:	c4 01       	movw	r24, r8
     4e6:	b3 01       	movw	r22, r6
     4e8:	c6 d2       	rcall	.+1420   	; 0xa76 <__addsf3>
     4ea:	20 e0       	ldi	r18, 0x00	; 0
     4ec:	30 e0       	ldi	r19, 0x00	; 0
     4ee:	40 e2       	ldi	r20, 0x20	; 32
     4f0:	51 e4       	ldi	r21, 0x41	; 65
     4f2:	08 d4       	rcall	.+2064   	; 0xd04 <__divsf3>
     4f4:	60 93 c1 01 	sts	0x01C1, r22
     4f8:	70 93 c2 01 	sts	0x01C2, r23
     4fc:	80 93 c3 01 	sts	0x01C3, r24
     500:	90 93 c4 01 	sts	0x01C4, r25
				*paw_p++;
			}


            if (a > 0) {
     504:	60 91 c1 01 	lds	r22, 0x01C1
     508:	70 91 c2 01 	lds	r23, 0x01C2
     50c:	80 91 c3 01 	lds	r24, 0x01C3
     510:	90 91 c4 01 	lds	r25, 0x01C4
     514:	2f c0       	rjmp	.+94     	; 0x574 <decide+0x19a>
                count++;
            }

            break;
        case 2:
            if (digit) state = 3;
     516:	11 23       	and	r17, r17
     518:	31 f0       	breq	.+12     	; 0x526 <decide+0x14c>
     51a:	83 e0       	ldi	r24, 0x03	; 3
     51c:	90 e0       	ldi	r25, 0x00	; 0
     51e:	90 93 ba 01 	sts	0x01BA, r25
     522:	80 93 b9 01 	sts	0x01B9, r24
        case 3:
            b = b * 10 + digit; // append to b.
     526:	60 91 b5 01 	lds	r22, 0x01B5
     52a:	70 91 b6 01 	lds	r23, 0x01B6
     52e:	80 91 b7 01 	lds	r24, 0x01B7
     532:	90 91 b8 01 	lds	r25, 0x01B8
     536:	20 e0       	ldi	r18, 0x00	; 0
     538:	30 e0       	ldi	r19, 0x00	; 0
     53a:	40 e2       	ldi	r20, 0x20	; 32
     53c:	51 e4       	ldi	r21, 0x41	; 65
     53e:	ed d2       	rcall	.+1498   	; 0xb1a <__mulsf3>
     540:	5b 01       	movw	r10, r22
     542:	6c 01       	movw	r12, r24
     544:	61 2f       	mov	r22, r17
     546:	70 e0       	ldi	r23, 0x00	; 0
     548:	88 27       	eor	r24, r24
     54a:	77 fd       	sbrc	r23, 7
     54c:	80 95       	com	r24
     54e:	98 2f       	mov	r25, r24
     550:	d8 d4       	rcall	.+2480   	; 0xf02 <__floatsisf>
     552:	9b 01       	movw	r18, r22
     554:	ac 01       	movw	r20, r24
     556:	c6 01       	movw	r24, r12
     558:	b5 01       	movw	r22, r10
     55a:	8d d2       	rcall	.+1306   	; 0xa76 <__addsf3>
     55c:	26 2f       	mov	r18, r22
     55e:	37 2f       	mov	r19, r23
     560:	48 2f       	mov	r20, r24
     562:	59 2f       	mov	r21, r25
     564:	20 93 b5 01 	sts	0x01B5, r18
     568:	30 93 b6 01 	sts	0x01B6, r19
     56c:	40 93 b7 01 	sts	0x01B7, r20
     570:	50 93 b8 01 	sts	0x01B8, r21
            if (b > 0) {
     574:	20 e0       	ldi	r18, 0x00	; 0
     576:	30 e0       	ldi	r19, 0x00	; 0
     578:	a9 01       	movw	r20, r18
     57a:	6d d4       	rcall	.+2266   	; 0xe56 <__gtsf2>
     57c:	18 16       	cp	r1, r24
     57e:	0c f0       	brlt	.+2      	; 0x582 <decide+0x1a8>
     580:	fa c0       	rjmp	.+500    	; 0x776 <decide+0x39c>
                send_data(key);
     582:	8f 2d       	mov	r24, r15
     584:	f0 dd       	rcall	.-1056   	; 0x166 <send_data>
                count++;
     586:	80 91 bf 01 	lds	r24, 0x01BF
     58a:	90 91 c0 01 	lds	r25, 0x01C0
     58e:	01 96       	adiw	r24, 0x01	; 1
     590:	90 93 c0 01 	sts	0x01C0, r25
     594:	80 93 bf 01 	sts	0x01BF, r24
     598:	ee c0       	rjmp	.+476    	; 0x776 <decide+0x39c>
            }
            break;
        case 4:
            if (digit) {
     59a:	11 23       	and	r17, r17
     59c:	09 f4       	brne	.+2      	; 0x5a0 <decide+0x1c6>
     59e:	eb c0       	rjmp	.+470    	; 0x776 <decide+0x39c>
                line[0] = ' ';
     5a0:	00 93 7b 00 	sts	0x007B, r16
                line[1] = ' ';
     5a4:	00 93 7c 00 	sts	0x007C, r16
                move_to(0, 0);
     5a8:	80 e0       	ldi	r24, 0x00	; 0
     5aa:	60 e0       	ldi	r22, 0x00	; 0
     5ac:	33 de       	rcall	.-922    	; 0x214 <move_to>
                send_string(line); // Clear 1st line.
     5ae:	8b e7       	ldi	r24, 0x7B	; 123
     5b0:	90 e0       	ldi	r25, 0x00	; 0
     5b2:	1d de       	rcall	.-966    	; 0x1ee <send_string>
                move_to(0, 0);
     5b4:	80 e0       	ldi	r24, 0x00	; 0
     5b6:	60 e0       	ldi	r22, 0x00	; 0
     5b8:	2d de       	rcall	.-934    	; 0x214 <move_to>
                a = b = op = count = 0;
     5ba:	10 92 c0 01 	sts	0x01C0, r1
     5be:	10 92 bf 01 	sts	0x01BF, r1
     5c2:	10 92 b4 01 	sts	0x01B4, r1
     5c6:	a0 92 b5 01 	sts	0x01B5, r10
     5ca:	b0 92 b6 01 	sts	0x01B6, r11
     5ce:	c0 92 b7 01 	sts	0x01B7, r12
     5d2:	d0 92 b8 01 	sts	0x01B8, r13
     5d6:	a0 92 c1 01 	sts	0x01C1, r10
     5da:	b0 92 c2 01 	sts	0x01C2, r11
     5de:	c0 92 c3 01 	sts	0x01C3, r12
     5e2:	d0 92 c4 01 	sts	0x01C4, r13
                state = 1;
     5e6:	70 92 ba 01 	sts	0x01BA, r7
     5ea:	60 92 b9 01 	sts	0x01B9, r6
                decide(key, is_dec_p, paw_p); // Recursively capture digit.
                return;
     5ee:	14 cf       	rjmp	.-472    	; 0x418 <decide+0x3e>
            }
            break;
        }
    } 
	
	else if (key == '.') {
     5f0:	8f 2d       	mov	r24, r15
     5f2:	8e 32       	cpi	r24, 0x2E	; 46
     5f4:	29 f4       	brne	.+10     	; 0x600 <decide+0x226>
		*is_dec_p = 1;
     5f6:	81 e0       	ldi	r24, 0x01	; 1
     5f8:	88 83       	st	Y, r24
		send_data(key);
     5fa:	8e e2       	ldi	r24, 0x2E	; 46
     5fc:	b4 dd       	rcall	.-1176   	; 0x166 <send_data>
     5fe:	bb c0       	rjmp	.+374    	; 0x776 <decide+0x39c>
	}

	else {
        switch (key) {
     600:	8f 2d       	mov	r24, r15
     602:	83 36       	cpi	r24, 0x63	; 99
     604:	29 f1       	breq	.+74     	; 0x650 <decide+0x276>
     606:	84 36       	cpi	r24, 0x64	; 100
     608:	a8 f4       	brcc	.+42     	; 0x634 <decide+0x25a>
     60a:	8f 32       	cpi	r24, 0x2F	; 47
     60c:	09 f1       	breq	.+66     	; 0x650 <decide+0x276>
     60e:	80 33       	cpi	r24, 0x30	; 48
     610:	48 f4       	brcc	.+18     	; 0x624 <decide+0x24a>
     612:	8a 32       	cpi	r24, 0x2A	; 42
     614:	08 f4       	brcc	.+2      	; 0x618 <decide+0x23e>
     616:	af c0       	rjmp	.+350    	; 0x776 <decide+0x39c>
     618:	8c 32       	cpi	r24, 0x2C	; 44
     61a:	d0 f0       	brcs	.+52     	; 0x650 <decide+0x276>
     61c:	8d 32       	cpi	r24, 0x2D	; 45
     61e:	09 f0       	breq	.+2      	; 0x622 <decide+0x248>
     620:	aa c0       	rjmp	.+340    	; 0x776 <decide+0x39c>
     622:	16 c0       	rjmp	.+44     	; 0x650 <decide+0x276>
     624:	8f 2d       	mov	r24, r15
     626:	8d 33       	cpi	r24, 0x3D	; 61
     628:	09 f4       	brne	.+2      	; 0x62c <decide+0x252>
     62a:	88 c0       	rjmp	.+272    	; 0x73c <decide+0x362>
     62c:	83 34       	cpi	r24, 0x43	; 67
     62e:	09 f0       	breq	.+2      	; 0x632 <decide+0x258>
     630:	a2 c0       	rjmp	.+324    	; 0x776 <decide+0x39c>
     632:	a0 c0       	rjmp	.+320    	; 0x774 <decide+0x39a>
     634:	8f 2d       	mov	r24, r15
     636:	80 37       	cpi	r24, 0x70	; 112
     638:	59 f0       	breq	.+22     	; 0x650 <decide+0x276>
     63a:	81 37       	cpi	r24, 0x71	; 113
     63c:	20 f4       	brcc	.+8      	; 0x646 <decide+0x26c>
     63e:	8d 36       	cpi	r24, 0x6D	; 109
     640:	09 f0       	breq	.+2      	; 0x644 <decide+0x26a>
     642:	99 c0       	rjmp	.+306    	; 0x776 <decide+0x39c>
     644:	05 c0       	rjmp	.+10     	; 0x650 <decide+0x276>
     646:	8f 2d       	mov	r24, r15
     648:	83 57       	subi	r24, 0x73	; 115
     64a:	82 30       	cpi	r24, 0x02	; 2
     64c:	08 f0       	brcs	.+2      	; 0x650 <decide+0x276>
     64e:	93 c0       	rjmp	.+294    	; 0x776 <decide+0x39c>
        case 's':
        case 'c':
        case 'm':
        case 'p':
        case 't':
            switch (state) {
     650:	80 91 b9 01 	lds	r24, 0x01B9
     654:	90 91 ba 01 	lds	r25, 0x01BA
     658:	82 30       	cpi	r24, 0x02	; 2
     65a:	91 05       	cpc	r25, r1
     65c:	81 f0       	breq	.+32     	; 0x67e <decide+0x2a4>
     65e:	83 30       	cpi	r24, 0x03	; 3
     660:	91 05       	cpc	r25, r1
     662:	28 f4       	brcc	.+10     	; 0x66e <decide+0x294>
     664:	81 30       	cpi	r24, 0x01	; 1
     666:	91 05       	cpc	r25, r1
     668:	09 f0       	breq	.+2      	; 0x66c <decide+0x292>
     66a:	65 c0       	rjmp	.+202    	; 0x736 <decide+0x35c>
     66c:	0b c0       	rjmp	.+22     	; 0x684 <decide+0x2aa>
     66e:	83 30       	cpi	r24, 0x03	; 3
     670:	91 05       	cpc	r25, r1
     672:	d1 f0       	breq	.+52     	; 0x6a8 <decide+0x2ce>
     674:	84 30       	cpi	r24, 0x04	; 4
     676:	91 05       	cpc	r25, r1
     678:	09 f0       	breq	.+2      	; 0x67c <decide+0x2a2>
     67a:	5d c0       	rjmp	.+186    	; 0x736 <decide+0x35c>
     67c:	29 c0       	rjmp	.+82     	; 0x6d0 <decide+0x2f6>
            case 2:
                move_to(0,0); // Modify the operand displayed.
     67e:	80 e0       	ldi	r24, 0x00	; 0
     680:	60 e0       	ldi	r22, 0x00	; 0
     682:	c8 dd       	rcall	.-1136   	; 0x214 <move_to>
            case 1:
                send_data(key);
     684:	8f 2d       	mov	r24, r15
     686:	6f dd       	rcall	.-1314   	; 0x166 <send_data>
                count++;
     688:	80 91 bf 01 	lds	r24, 0x01BF
     68c:	90 91 c0 01 	lds	r25, 0x01C0
     690:	01 96       	adiw	r24, 0x01	; 1
     692:	90 93 c0 01 	sts	0x01C0, r25
     696:	80 93 bf 01 	sts	0x01BF, r24
                state = 2;
     69a:	82 e0       	ldi	r24, 0x02	; 2
     69c:	90 e0       	ldi	r25, 0x00	; 0
     69e:	90 93 ba 01 	sts	0x01BA, r25
     6a2:	80 93 b9 01 	sts	0x01B9, r24
                break;
     6a6:	47 c0       	rjmp	.+142    	; 0x736 <decide+0x35c>
            case 3:
                calculate(a, op, b);
     6a8:	60 91 c1 01 	lds	r22, 0x01C1
     6ac:	70 91 c2 01 	lds	r23, 0x01C2
     6b0:	80 91 c3 01 	lds	r24, 0x01C3
     6b4:	90 91 c4 01 	lds	r25, 0x01C4
     6b8:	00 91 b5 01 	lds	r16, 0x01B5
     6bc:	10 91 b6 01 	lds	r17, 0x01B6
     6c0:	20 91 b7 01 	lds	r18, 0x01B7
     6c4:	30 91 b8 01 	lds	r19, 0x01B8
     6c8:	40 91 b4 01 	lds	r20, 0x01B4
     6cc:	00 de       	rcall	.-1024   	; 0x2ce <calculate>
                show_result();
     6ce:	26 de       	rcall	.-948    	; 0x31c <show_result>
            case 4:
                move_to(0, 0);
     6d0:	80 e0       	ldi	r24, 0x00	; 0
     6d2:	60 e0       	ldi	r22, 0x00	; 0
     6d4:	9f dd       	rcall	.-1218   	; 0x214 <move_to>
                line[0] = 'A'; // 'A' represents current result.
     6d6:	81 e4       	ldi	r24, 0x41	; 65
     6d8:	80 93 7b 00 	sts	0x007B, r24
                line[1] = key; // Operator of the operation.
     6dc:	f0 92 7c 00 	sts	0x007C, r15
                send_string(line);
     6e0:	8b e7       	ldi	r24, 0x7B	; 123
     6e2:	90 e0       	ldi	r25, 0x00	; 0
     6e4:	84 dd       	rcall	.-1272   	; 0x1ee <send_string>
                move_to(2,0);
     6e6:	82 e0       	ldi	r24, 0x02	; 2
     6e8:	60 e0       	ldi	r22, 0x00	; 0
     6ea:	94 dd       	rcall	.-1240   	; 0x214 <move_to>
                count = 2;
     6ec:	22 e0       	ldi	r18, 0x02	; 2
     6ee:	30 e0       	ldi	r19, 0x00	; 0
     6f0:	30 93 c0 01 	sts	0x01C0, r19
     6f4:	20 93 bf 01 	sts	0x01BF, r18
                a = r; // Put result into a.
     6f8:	80 91 bb 01 	lds	r24, 0x01BB
     6fc:	90 91 bc 01 	lds	r25, 0x01BC
     700:	a0 91 bd 01 	lds	r26, 0x01BD
     704:	b0 91 be 01 	lds	r27, 0x01BE
     708:	80 93 c1 01 	sts	0x01C1, r24
     70c:	90 93 c2 01 	sts	0x01C2, r25
     710:	a0 93 c3 01 	sts	0x01C3, r26
     714:	b0 93 c4 01 	sts	0x01C4, r27
                b = 0; // Clear b.
     718:	80 e0       	ldi	r24, 0x00	; 0
     71a:	90 e0       	ldi	r25, 0x00	; 0
     71c:	dc 01       	movw	r26, r24
     71e:	80 93 b5 01 	sts	0x01B5, r24
     722:	90 93 b6 01 	sts	0x01B6, r25
     726:	a0 93 b7 01 	sts	0x01B7, r26
     72a:	b0 93 b8 01 	sts	0x01B8, r27
                state = 2;
     72e:	30 93 ba 01 	sts	0x01BA, r19
     732:	20 93 b9 01 	sts	0x01B9, r18
                break;
            }
            op = key;
     736:	f0 92 b4 01 	sts	0x01B4, r15
            break;
     73a:	1d c0       	rjmp	.+58     	; 0x776 <decide+0x39c>
        case '=':
            if(state == 3){
     73c:	80 91 b9 01 	lds	r24, 0x01B9
     740:	90 91 ba 01 	lds	r25, 0x01BA
     744:	83 30       	cpi	r24, 0x03	; 3
     746:	91 05       	cpc	r25, r1
     748:	b1 f4       	brne	.+44     	; 0x776 <decide+0x39c>
                calculate(a, op, b);
     74a:	60 91 c1 01 	lds	r22, 0x01C1
     74e:	70 91 c2 01 	lds	r23, 0x01C2
     752:	80 91 c3 01 	lds	r24, 0x01C3
     756:	90 91 c4 01 	lds	r25, 0x01C4
     75a:	00 91 b5 01 	lds	r16, 0x01B5
     75e:	10 91 b6 01 	lds	r17, 0x01B6
     762:	20 91 b7 01 	lds	r18, 0x01B7
     766:	30 91 b8 01 	lds	r19, 0x01B8
     76a:	40 91 b4 01 	lds	r20, 0x01B4
     76e:	af dd       	rcall	.-1186   	; 0x2ce <calculate>
                show_result();
     770:	d5 dd       	rcall	.-1110   	; 0x31c <show_result>
     772:	01 c0       	rjmp	.+2      	; 0x776 <decide+0x39c>
            }
            break;
        case 'C': // "C" button.
            //if (state != 0) 
			reset();
     774:	08 de       	rcall	.-1008   	; 0x386 <reset>
            break;
        }
    }
}
     776:	df 91       	pop	r29
     778:	cf 91       	pop	r28
     77a:	1f 91       	pop	r17
     77c:	0f 91       	pop	r16
     77e:	ff 90       	pop	r15
     780:	df 90       	pop	r13
     782:	cf 90       	pop	r12
     784:	bf 90       	pop	r11
     786:	af 90       	pop	r10
     788:	9f 90       	pop	r9
     78a:	8f 90       	pop	r8
     78c:	7f 90       	pop	r7
     78e:	6f 90       	pop	r6
     790:	08 95       	ret

00000792 <run>:

void send_digit(unsigned char digit) {
    send_data(digit + '0');
}

void run() {
     792:	ef 92       	push	r14
     794:	ff 92       	push	r15
     796:	0f 93       	push	r16
     798:	1f 93       	push	r17
     79a:	df 93       	push	r29
     79c:	cf 93       	push	r28
     79e:	00 d0       	rcall	.+0      	; 0x7a0 <run+0xe>
     7a0:	0f 92       	push	r0
     7a2:	cd b7       	in	r28, 0x3d	; 61
     7a4:	de b7       	in	r29, 0x3e	; 62
	bool *is_dec_p;
	bool is_decimal = 0;
     7a6:	19 82       	std	Y+1, r1	; 0x01
	is_dec_p = &is_decimal;

	int *paw_p;
	int paw = 1;
     7a8:	81 e0       	ldi	r24, 0x01	; 1
     7aa:	90 e0       	ldi	r25, 0x00	; 0
     7ac:	9b 83       	std	Y+3, r25	; 0x03
     7ae:	8a 83       	std	Y+2, r24	; 0x02
	paw_p = &paw;
     7b0:	92 e0       	ldi	r25, 0x02	; 2
     7b2:	e9 2e       	mov	r14, r25
     7b4:	f1 2c       	mov	r15, r1
     7b6:	ec 0e       	add	r14, r28
     7b8:	fd 1e       	adc	r15, r29

    while (1) {
        decide(scan_key(), is_dec_p, paw_p);
     7ba:	8e 01       	movw	r16, r28
     7bc:	0f 5f       	subi	r16, 0xFF	; 255
     7be:	1f 4f       	sbci	r17, 0xFF	; 255
     7c0:	3c dd       	rcall	.-1416   	; 0x23a <scan_key>
     7c2:	b8 01       	movw	r22, r16
     7c4:	a7 01       	movw	r20, r14
     7c6:	09 de       	rcall	.-1006   	; 0x3da <decide>
     7c8:	fb cf       	rjmp	.-10     	; 0x7c0 <run+0x2e>

000007ca <init_calculator>:
     7ca:	8f e9       	ldi	r24, 0x9F	; 159
     7cc:	96 e8       	ldi	r25, 0x86	; 134
     7ce:	a1 e0       	ldi	r26, 0x01	; 1
     7d0:	81 50       	subi	r24, 0x01	; 1
     7d2:	90 40       	sbci	r25, 0x00	; 0
     7d4:	a0 40       	sbci	r26, 0x00	; 0
     7d6:	e1 f7       	brne	.-8      	; 0x7d0 <init_calculator+0x6>
     7d8:	00 c0       	rjmp	.+0      	; 0x7da <init_calculator+0x10>
     7da:	00 00       	nop
void decide(unsigned char, bool*, int*);
void send_digit(unsigned char);

void init_calculator() {
    _delay_ms(500);
    init_display();
     7dc:	d2 dc       	rcall	.-1628   	; 0x182 <init_display>
    init_keyboard();
     7de:	26 dd       	rcall	.-1460   	; 0x22c <init_keyboard>

    reset();
     7e0:	d2 dd       	rcall	.-1116   	; 0x386 <reset>
    run();
     7e2:	d7 df       	rcall	.-82     	; 0x792 <run>
}
     7e4:	08 95       	ret

000007e6 <_fpadd_parts>:
     7e6:	a0 e0       	ldi	r26, 0x00	; 0
     7e8:	b0 e0       	ldi	r27, 0x00	; 0
     7ea:	e8 ef       	ldi	r30, 0xF8	; 248
     7ec:	f3 e0       	ldi	r31, 0x03	; 3
     7ee:	d2 c5       	rjmp	.+2980   	; 0x1394 <__prologue_saves__+0x8>
     7f0:	fc 01       	movw	r30, r24
     7f2:	ea 01       	movw	r28, r20
     7f4:	80 81       	ld	r24, Z
     7f6:	82 30       	cpi	r24, 0x02	; 2
     7f8:	08 f4       	brcc	.+2      	; 0x7fc <_fpadd_parts+0x16>
     7fa:	38 c1       	rjmp	.+624    	; 0xa6c <_fpadd_parts+0x286>
     7fc:	db 01       	movw	r26, r22
     7fe:	9c 91       	ld	r25, X
     800:	92 30       	cpi	r25, 0x02	; 2
     802:	08 f4       	brcc	.+2      	; 0x806 <_fpadd_parts+0x20>
     804:	30 c1       	rjmp	.+608    	; 0xa66 <_fpadd_parts+0x280>
     806:	84 30       	cpi	r24, 0x04	; 4
     808:	59 f4       	brne	.+22     	; 0x820 <_fpadd_parts+0x3a>
     80a:	94 30       	cpi	r25, 0x04	; 4
     80c:	09 f0       	breq	.+2      	; 0x810 <_fpadd_parts+0x2a>
     80e:	2e c1       	rjmp	.+604    	; 0xa6c <_fpadd_parts+0x286>
     810:	91 81       	ldd	r25, Z+1	; 0x01
     812:	11 96       	adiw	r26, 0x01	; 1
     814:	8c 91       	ld	r24, X
     816:	11 97       	sbiw	r26, 0x01	; 1
     818:	98 17       	cp	r25, r24
     81a:	09 f0       	breq	.+2      	; 0x81e <_fpadd_parts+0x38>
     81c:	21 c1       	rjmp	.+578    	; 0xa60 <_fpadd_parts+0x27a>
     81e:	26 c1       	rjmp	.+588    	; 0xa6c <_fpadd_parts+0x286>
     820:	94 30       	cpi	r25, 0x04	; 4
     822:	09 f4       	brne	.+2      	; 0x826 <_fpadd_parts+0x40>
     824:	20 c1       	rjmp	.+576    	; 0xa66 <_fpadd_parts+0x280>
     826:	92 30       	cpi	r25, 0x02	; 2
     828:	b1 f4       	brne	.+44     	; 0x856 <_fpadd_parts+0x70>
     82a:	82 30       	cpi	r24, 0x02	; 2
     82c:	09 f0       	breq	.+2      	; 0x830 <_fpadd_parts+0x4a>
     82e:	1e c1       	rjmp	.+572    	; 0xa6c <_fpadd_parts+0x286>
     830:	ca 01       	movw	r24, r20
     832:	af 01       	movw	r20, r30
     834:	28 e0       	ldi	r18, 0x08	; 8
     836:	da 01       	movw	r26, r20
     838:	0d 90       	ld	r0, X+
     83a:	ad 01       	movw	r20, r26
     83c:	dc 01       	movw	r26, r24
     83e:	0d 92       	st	X+, r0
     840:	cd 01       	movw	r24, r26
     842:	21 50       	subi	r18, 0x01	; 1
     844:	c1 f7       	brne	.-16     	; 0x836 <_fpadd_parts+0x50>
     846:	db 01       	movw	r26, r22
     848:	11 96       	adiw	r26, 0x01	; 1
     84a:	8c 91       	ld	r24, X
     84c:	11 97       	sbiw	r26, 0x01	; 1
     84e:	91 81       	ldd	r25, Z+1	; 0x01
     850:	89 23       	and	r24, r25
     852:	89 83       	std	Y+1, r24	; 0x01
     854:	0a c1       	rjmp	.+532    	; 0xa6a <_fpadd_parts+0x284>
     856:	82 30       	cpi	r24, 0x02	; 2
     858:	09 f4       	brne	.+2      	; 0x85c <_fpadd_parts+0x76>
     85a:	05 c1       	rjmp	.+522    	; 0xa66 <_fpadd_parts+0x280>
     85c:	c2 80       	ldd	r12, Z+2	; 0x02
     85e:	d3 80       	ldd	r13, Z+3	; 0x03
     860:	db 01       	movw	r26, r22
     862:	12 96       	adiw	r26, 0x02	; 2
     864:	6d 90       	ld	r6, X+
     866:	7c 90       	ld	r7, X
     868:	13 97       	sbiw	r26, 0x03	; 3
     86a:	24 81       	ldd	r18, Z+4	; 0x04
     86c:	35 81       	ldd	r19, Z+5	; 0x05
     86e:	46 81       	ldd	r20, Z+6	; 0x06
     870:	57 81       	ldd	r21, Z+7	; 0x07
     872:	14 96       	adiw	r26, 0x04	; 4
     874:	ed 90       	ld	r14, X+
     876:	fd 90       	ld	r15, X+
     878:	0d 91       	ld	r16, X+
     87a:	1c 91       	ld	r17, X
     87c:	17 97       	sbiw	r26, 0x07	; 7
     87e:	c6 01       	movw	r24, r12
     880:	86 19       	sub	r24, r6
     882:	97 09       	sbc	r25, r7
     884:	5c 01       	movw	r10, r24
     886:	97 ff       	sbrs	r25, 7
     888:	04 c0       	rjmp	.+8      	; 0x892 <_fpadd_parts+0xac>
     88a:	aa 24       	eor	r10, r10
     88c:	bb 24       	eor	r11, r11
     88e:	a8 1a       	sub	r10, r24
     890:	b9 0a       	sbc	r11, r25
     892:	b0 e2       	ldi	r27, 0x20	; 32
     894:	ab 16       	cp	r10, r27
     896:	b1 04       	cpc	r11, r1
     898:	0c f0       	brlt	.+2      	; 0x89c <_fpadd_parts+0xb6>
     89a:	61 c0       	rjmp	.+194    	; 0x95e <_fpadd_parts+0x178>
     89c:	18 16       	cp	r1, r24
     89e:	19 06       	cpc	r1, r25
     8a0:	6c f5       	brge	.+90     	; 0x8fc <_fpadd_parts+0x116>
     8a2:	37 01       	movw	r6, r14
     8a4:	48 01       	movw	r8, r16
     8a6:	0a 2c       	mov	r0, r10
     8a8:	04 c0       	rjmp	.+8      	; 0x8b2 <_fpadd_parts+0xcc>
     8aa:	96 94       	lsr	r9
     8ac:	87 94       	ror	r8
     8ae:	77 94       	ror	r7
     8b0:	67 94       	ror	r6
     8b2:	0a 94       	dec	r0
     8b4:	d2 f7       	brpl	.-12     	; 0x8aa <_fpadd_parts+0xc4>
     8b6:	81 e0       	ldi	r24, 0x01	; 1
     8b8:	90 e0       	ldi	r25, 0x00	; 0
     8ba:	a0 e0       	ldi	r26, 0x00	; 0
     8bc:	b0 e0       	ldi	r27, 0x00	; 0
     8be:	0a 2c       	mov	r0, r10
     8c0:	04 c0       	rjmp	.+8      	; 0x8ca <_fpadd_parts+0xe4>
     8c2:	88 0f       	add	r24, r24
     8c4:	99 1f       	adc	r25, r25
     8c6:	aa 1f       	adc	r26, r26
     8c8:	bb 1f       	adc	r27, r27
     8ca:	0a 94       	dec	r0
     8cc:	d2 f7       	brpl	.-12     	; 0x8c2 <_fpadd_parts+0xdc>
     8ce:	01 97       	sbiw	r24, 0x01	; 1
     8d0:	a1 09       	sbc	r26, r1
     8d2:	b1 09       	sbc	r27, r1
     8d4:	8e 21       	and	r24, r14
     8d6:	9f 21       	and	r25, r15
     8d8:	a0 23       	and	r26, r16
     8da:	b1 23       	and	r27, r17
     8dc:	ee 24       	eor	r14, r14
     8de:	ff 24       	eor	r15, r15
     8e0:	87 01       	movw	r16, r14
     8e2:	e3 94       	inc	r14
     8e4:	00 97       	sbiw	r24, 0x00	; 0
     8e6:	a1 05       	cpc	r26, r1
     8e8:	b1 05       	cpc	r27, r1
     8ea:	19 f4       	brne	.+6      	; 0x8f2 <_fpadd_parts+0x10c>
     8ec:	ee 24       	eor	r14, r14
     8ee:	ff 24       	eor	r15, r15
     8f0:	87 01       	movw	r16, r14
     8f2:	e6 28       	or	r14, r6
     8f4:	f7 28       	or	r15, r7
     8f6:	08 29       	or	r16, r8
     8f8:	19 29       	or	r17, r9
     8fa:	3c c0       	rjmp	.+120    	; 0x974 <_fpadd_parts+0x18e>
     8fc:	00 97       	sbiw	r24, 0x00	; 0
     8fe:	d1 f1       	breq	.+116    	; 0x974 <_fpadd_parts+0x18e>
     900:	ca 0c       	add	r12, r10
     902:	db 1c       	adc	r13, r11
     904:	39 01       	movw	r6, r18
     906:	4a 01       	movw	r8, r20
     908:	0a 2c       	mov	r0, r10
     90a:	04 c0       	rjmp	.+8      	; 0x914 <_fpadd_parts+0x12e>
     90c:	96 94       	lsr	r9
     90e:	87 94       	ror	r8
     910:	77 94       	ror	r7
     912:	67 94       	ror	r6
     914:	0a 94       	dec	r0
     916:	d2 f7       	brpl	.-12     	; 0x90c <_fpadd_parts+0x126>
     918:	81 e0       	ldi	r24, 0x01	; 1
     91a:	90 e0       	ldi	r25, 0x00	; 0
     91c:	a0 e0       	ldi	r26, 0x00	; 0
     91e:	b0 e0       	ldi	r27, 0x00	; 0
     920:	0a 2c       	mov	r0, r10
     922:	04 c0       	rjmp	.+8      	; 0x92c <_fpadd_parts+0x146>
     924:	88 0f       	add	r24, r24
     926:	99 1f       	adc	r25, r25
     928:	aa 1f       	adc	r26, r26
     92a:	bb 1f       	adc	r27, r27
     92c:	0a 94       	dec	r0
     92e:	d2 f7       	brpl	.-12     	; 0x924 <_fpadd_parts+0x13e>
     930:	01 97       	sbiw	r24, 0x01	; 1
     932:	a1 09       	sbc	r26, r1
     934:	b1 09       	sbc	r27, r1
     936:	82 23       	and	r24, r18
     938:	93 23       	and	r25, r19
     93a:	a4 23       	and	r26, r20
     93c:	b5 23       	and	r27, r21
     93e:	21 e0       	ldi	r18, 0x01	; 1
     940:	30 e0       	ldi	r19, 0x00	; 0
     942:	40 e0       	ldi	r20, 0x00	; 0
     944:	50 e0       	ldi	r21, 0x00	; 0
     946:	00 97       	sbiw	r24, 0x00	; 0
     948:	a1 05       	cpc	r26, r1
     94a:	b1 05       	cpc	r27, r1
     94c:	19 f4       	brne	.+6      	; 0x954 <_fpadd_parts+0x16e>
     94e:	20 e0       	ldi	r18, 0x00	; 0
     950:	30 e0       	ldi	r19, 0x00	; 0
     952:	a9 01       	movw	r20, r18
     954:	26 29       	or	r18, r6
     956:	37 29       	or	r19, r7
     958:	48 29       	or	r20, r8
     95a:	59 29       	or	r21, r9
     95c:	0b c0       	rjmp	.+22     	; 0x974 <_fpadd_parts+0x18e>
     95e:	6c 14       	cp	r6, r12
     960:	7d 04       	cpc	r7, r13
     962:	24 f4       	brge	.+8      	; 0x96c <_fpadd_parts+0x186>
     964:	ee 24       	eor	r14, r14
     966:	ff 24       	eor	r15, r15
     968:	87 01       	movw	r16, r14
     96a:	04 c0       	rjmp	.+8      	; 0x974 <_fpadd_parts+0x18e>
     96c:	63 01       	movw	r12, r6
     96e:	20 e0       	ldi	r18, 0x00	; 0
     970:	30 e0       	ldi	r19, 0x00	; 0
     972:	a9 01       	movw	r20, r18
     974:	81 81       	ldd	r24, Z+1	; 0x01
     976:	fb 01       	movw	r30, r22
     978:	91 81       	ldd	r25, Z+1	; 0x01
     97a:	89 17       	cp	r24, r25
     97c:	09 f4       	brne	.+2      	; 0x980 <_fpadd_parts+0x19a>
     97e:	45 c0       	rjmp	.+138    	; 0xa0a <_fpadd_parts+0x224>
     980:	88 23       	and	r24, r24
     982:	49 f0       	breq	.+18     	; 0x996 <_fpadd_parts+0x1b0>
     984:	d8 01       	movw	r26, r16
     986:	c7 01       	movw	r24, r14
     988:	82 1b       	sub	r24, r18
     98a:	93 0b       	sbc	r25, r19
     98c:	a4 0b       	sbc	r26, r20
     98e:	b5 0b       	sbc	r27, r21
     990:	9c 01       	movw	r18, r24
     992:	ad 01       	movw	r20, r26
     994:	04 c0       	rjmp	.+8      	; 0x99e <_fpadd_parts+0x1b8>
     996:	2e 19       	sub	r18, r14
     998:	3f 09       	sbc	r19, r15
     99a:	40 0b       	sbc	r20, r16
     99c:	51 0b       	sbc	r21, r17
     99e:	57 fd       	sbrc	r21, 7
     9a0:	04 c0       	rjmp	.+8      	; 0x9aa <_fpadd_parts+0x1c4>
     9a2:	19 82       	std	Y+1, r1	; 0x01
     9a4:	db 82       	std	Y+3, r13	; 0x03
     9a6:	ca 82       	std	Y+2, r12	; 0x02
     9a8:	0b c0       	rjmp	.+22     	; 0x9c0 <_fpadd_parts+0x1da>
     9aa:	81 e0       	ldi	r24, 0x01	; 1
     9ac:	89 83       	std	Y+1, r24	; 0x01
     9ae:	db 82       	std	Y+3, r13	; 0x03
     9b0:	ca 82       	std	Y+2, r12	; 0x02
     9b2:	50 95       	com	r21
     9b4:	40 95       	com	r20
     9b6:	30 95       	com	r19
     9b8:	21 95       	neg	r18
     9ba:	3f 4f       	sbci	r19, 0xFF	; 255
     9bc:	4f 4f       	sbci	r20, 0xFF	; 255
     9be:	5f 4f       	sbci	r21, 0xFF	; 255
     9c0:	2c 83       	std	Y+4, r18	; 0x04
     9c2:	3d 83       	std	Y+5, r19	; 0x05
     9c4:	4e 83       	std	Y+6, r20	; 0x06
     9c6:	5f 83       	std	Y+7, r21	; 0x07
     9c8:	0d c0       	rjmp	.+26     	; 0x9e4 <_fpadd_parts+0x1fe>
     9ca:	88 0f       	add	r24, r24
     9cc:	99 1f       	adc	r25, r25
     9ce:	aa 1f       	adc	r26, r26
     9d0:	bb 1f       	adc	r27, r27
     9d2:	8c 83       	std	Y+4, r24	; 0x04
     9d4:	9d 83       	std	Y+5, r25	; 0x05
     9d6:	ae 83       	std	Y+6, r26	; 0x06
     9d8:	bf 83       	std	Y+7, r27	; 0x07
     9da:	8a 81       	ldd	r24, Y+2	; 0x02
     9dc:	9b 81       	ldd	r25, Y+3	; 0x03
     9de:	01 97       	sbiw	r24, 0x01	; 1
     9e0:	9b 83       	std	Y+3, r25	; 0x03
     9e2:	8a 83       	std	Y+2, r24	; 0x02
     9e4:	8c 81       	ldd	r24, Y+4	; 0x04
     9e6:	9d 81       	ldd	r25, Y+5	; 0x05
     9e8:	ae 81       	ldd	r26, Y+6	; 0x06
     9ea:	bf 81       	ldd	r27, Y+7	; 0x07
     9ec:	9c 01       	movw	r18, r24
     9ee:	ad 01       	movw	r20, r26
     9f0:	21 50       	subi	r18, 0x01	; 1
     9f2:	30 40       	sbci	r19, 0x00	; 0
     9f4:	40 40       	sbci	r20, 0x00	; 0
     9f6:	50 40       	sbci	r21, 0x00	; 0
     9f8:	2f 3f       	cpi	r18, 0xFF	; 255
     9fa:	ef ef       	ldi	r30, 0xFF	; 255
     9fc:	3e 07       	cpc	r19, r30
     9fe:	ef ef       	ldi	r30, 0xFF	; 255
     a00:	4e 07       	cpc	r20, r30
     a02:	ef e3       	ldi	r30, 0x3F	; 63
     a04:	5e 07       	cpc	r21, r30
     a06:	08 f3       	brcs	.-62     	; 0x9ca <_fpadd_parts+0x1e4>
     a08:	0b c0       	rjmp	.+22     	; 0xa20 <_fpadd_parts+0x23a>
     a0a:	89 83       	std	Y+1, r24	; 0x01
     a0c:	db 82       	std	Y+3, r13	; 0x03
     a0e:	ca 82       	std	Y+2, r12	; 0x02
     a10:	2e 0d       	add	r18, r14
     a12:	3f 1d       	adc	r19, r15
     a14:	40 1f       	adc	r20, r16
     a16:	51 1f       	adc	r21, r17
     a18:	2c 83       	std	Y+4, r18	; 0x04
     a1a:	3d 83       	std	Y+5, r19	; 0x05
     a1c:	4e 83       	std	Y+6, r20	; 0x06
     a1e:	5f 83       	std	Y+7, r21	; 0x07
     a20:	83 e0       	ldi	r24, 0x03	; 3
     a22:	88 83       	st	Y, r24
     a24:	2c 81       	ldd	r18, Y+4	; 0x04
     a26:	3d 81       	ldd	r19, Y+5	; 0x05
     a28:	4e 81       	ldd	r20, Y+6	; 0x06
     a2a:	5f 81       	ldd	r21, Y+7	; 0x07
     a2c:	57 ff       	sbrs	r21, 7
     a2e:	1d c0       	rjmp	.+58     	; 0xa6a <_fpadd_parts+0x284>
     a30:	da 01       	movw	r26, r20
     a32:	c9 01       	movw	r24, r18
     a34:	81 70       	andi	r24, 0x01	; 1
     a36:	90 70       	andi	r25, 0x00	; 0
     a38:	a0 70       	andi	r26, 0x00	; 0
     a3a:	b0 70       	andi	r27, 0x00	; 0
     a3c:	56 95       	lsr	r21
     a3e:	47 95       	ror	r20
     a40:	37 95       	ror	r19
     a42:	27 95       	ror	r18
     a44:	82 2b       	or	r24, r18
     a46:	93 2b       	or	r25, r19
     a48:	a4 2b       	or	r26, r20
     a4a:	b5 2b       	or	r27, r21
     a4c:	8c 83       	std	Y+4, r24	; 0x04
     a4e:	9d 83       	std	Y+5, r25	; 0x05
     a50:	ae 83       	std	Y+6, r26	; 0x06
     a52:	bf 83       	std	Y+7, r27	; 0x07
     a54:	8a 81       	ldd	r24, Y+2	; 0x02
     a56:	9b 81       	ldd	r25, Y+3	; 0x03
     a58:	01 96       	adiw	r24, 0x01	; 1
     a5a:	9b 83       	std	Y+3, r25	; 0x03
     a5c:	8a 83       	std	Y+2, r24	; 0x02
     a5e:	05 c0       	rjmp	.+10     	; 0xa6a <_fpadd_parts+0x284>
     a60:	eb e9       	ldi	r30, 0x9B	; 155
     a62:	f0 e0       	ldi	r31, 0x00	; 0
     a64:	03 c0       	rjmp	.+6      	; 0xa6c <_fpadd_parts+0x286>
     a66:	fb 01       	movw	r30, r22
     a68:	01 c0       	rjmp	.+2      	; 0xa6c <_fpadd_parts+0x286>
     a6a:	fe 01       	movw	r30, r28
     a6c:	cf 01       	movw	r24, r30
     a6e:	cd b7       	in	r28, 0x3d	; 61
     a70:	de b7       	in	r29, 0x3e	; 62
     a72:	ee e0       	ldi	r30, 0x0E	; 14
     a74:	ab c4       	rjmp	.+2390   	; 0x13cc <__epilogue_restores__+0x8>

00000a76 <__addsf3>:
     a76:	a0 e2       	ldi	r26, 0x20	; 32
     a78:	b0 e0       	ldi	r27, 0x00	; 0
     a7a:	e0 e4       	ldi	r30, 0x40	; 64
     a7c:	f5 e0       	ldi	r31, 0x05	; 5
     a7e:	92 c4       	rjmp	.+2340   	; 0x13a4 <__prologue_saves__+0x18>
     a80:	69 83       	std	Y+1, r22	; 0x01
     a82:	7a 83       	std	Y+2, r23	; 0x02
     a84:	8b 83       	std	Y+3, r24	; 0x03
     a86:	9c 83       	std	Y+4, r25	; 0x04
     a88:	2d 83       	std	Y+5, r18	; 0x05
     a8a:	3e 83       	std	Y+6, r19	; 0x06
     a8c:	4f 83       	std	Y+7, r20	; 0x07
     a8e:	58 87       	std	Y+8, r21	; 0x08
     a90:	89 e0       	ldi	r24, 0x09	; 9
     a92:	e8 2e       	mov	r14, r24
     a94:	f1 2c       	mov	r15, r1
     a96:	ec 0e       	add	r14, r28
     a98:	fd 1e       	adc	r15, r29
     a9a:	ce 01       	movw	r24, r28
     a9c:	01 96       	adiw	r24, 0x01	; 1
     a9e:	b7 01       	movw	r22, r14
     aa0:	b3 d3       	rcall	.+1894   	; 0x1208 <__unpack_f>
     aa2:	8e 01       	movw	r16, r28
     aa4:	0f 5e       	subi	r16, 0xEF	; 239
     aa6:	1f 4f       	sbci	r17, 0xFF	; 255
     aa8:	ce 01       	movw	r24, r28
     aaa:	05 96       	adiw	r24, 0x05	; 5
     aac:	b8 01       	movw	r22, r16
     aae:	ac d3       	rcall	.+1880   	; 0x1208 <__unpack_f>
     ab0:	c7 01       	movw	r24, r14
     ab2:	b8 01       	movw	r22, r16
     ab4:	ae 01       	movw	r20, r28
     ab6:	47 5e       	subi	r20, 0xE7	; 231
     ab8:	5f 4f       	sbci	r21, 0xFF	; 255
     aba:	95 de       	rcall	.-726    	; 0x7e6 <_fpadd_parts>
     abc:	d8 d2       	rcall	.+1456   	; 0x106e <__pack_f>
     abe:	a0 96       	adiw	r28, 0x20	; 32
     ac0:	e6 e0       	ldi	r30, 0x06	; 6
     ac2:	8c c4       	rjmp	.+2328   	; 0x13dc <__epilogue_restores__+0x18>

00000ac4 <__subsf3>:
     ac4:	a0 e2       	ldi	r26, 0x20	; 32
     ac6:	b0 e0       	ldi	r27, 0x00	; 0
     ac8:	e7 e6       	ldi	r30, 0x67	; 103
     aca:	f5 e0       	ldi	r31, 0x05	; 5
     acc:	6b c4       	rjmp	.+2262   	; 0x13a4 <__prologue_saves__+0x18>
     ace:	69 83       	std	Y+1, r22	; 0x01
     ad0:	7a 83       	std	Y+2, r23	; 0x02
     ad2:	8b 83       	std	Y+3, r24	; 0x03
     ad4:	9c 83       	std	Y+4, r25	; 0x04
     ad6:	2d 83       	std	Y+5, r18	; 0x05
     ad8:	3e 83       	std	Y+6, r19	; 0x06
     ada:	4f 83       	std	Y+7, r20	; 0x07
     adc:	58 87       	std	Y+8, r21	; 0x08
     ade:	8e 01       	movw	r16, r28
     ae0:	07 5f       	subi	r16, 0xF7	; 247
     ae2:	1f 4f       	sbci	r17, 0xFF	; 255
     ae4:	ce 01       	movw	r24, r28
     ae6:	01 96       	adiw	r24, 0x01	; 1
     ae8:	b8 01       	movw	r22, r16
     aea:	8e d3       	rcall	.+1820   	; 0x1208 <__unpack_f>
     aec:	91 e1       	ldi	r25, 0x11	; 17
     aee:	e9 2e       	mov	r14, r25
     af0:	f1 2c       	mov	r15, r1
     af2:	ec 0e       	add	r14, r28
     af4:	fd 1e       	adc	r15, r29
     af6:	ce 01       	movw	r24, r28
     af8:	05 96       	adiw	r24, 0x05	; 5
     afa:	b7 01       	movw	r22, r14
     afc:	85 d3       	rcall	.+1802   	; 0x1208 <__unpack_f>
     afe:	8a 89       	ldd	r24, Y+18	; 0x12
     b00:	91 e0       	ldi	r25, 0x01	; 1
     b02:	89 27       	eor	r24, r25
     b04:	8a 8b       	std	Y+18, r24	; 0x12
     b06:	c8 01       	movw	r24, r16
     b08:	b7 01       	movw	r22, r14
     b0a:	ae 01       	movw	r20, r28
     b0c:	47 5e       	subi	r20, 0xE7	; 231
     b0e:	5f 4f       	sbci	r21, 0xFF	; 255
     b10:	6a de       	rcall	.-812    	; 0x7e6 <_fpadd_parts>
     b12:	ad d2       	rcall	.+1370   	; 0x106e <__pack_f>
     b14:	a0 96       	adiw	r28, 0x20	; 32
     b16:	e6 e0       	ldi	r30, 0x06	; 6
     b18:	61 c4       	rjmp	.+2242   	; 0x13dc <__epilogue_restores__+0x18>

00000b1a <__mulsf3>:
     b1a:	a0 e2       	ldi	r26, 0x20	; 32
     b1c:	b0 e0       	ldi	r27, 0x00	; 0
     b1e:	e2 e9       	ldi	r30, 0x92	; 146
     b20:	f5 e0       	ldi	r31, 0x05	; 5
     b22:	34 c4       	rjmp	.+2152   	; 0x138c <__prologue_saves__>
     b24:	69 83       	std	Y+1, r22	; 0x01
     b26:	7a 83       	std	Y+2, r23	; 0x02
     b28:	8b 83       	std	Y+3, r24	; 0x03
     b2a:	9c 83       	std	Y+4, r25	; 0x04
     b2c:	2d 83       	std	Y+5, r18	; 0x05
     b2e:	3e 83       	std	Y+6, r19	; 0x06
     b30:	4f 83       	std	Y+7, r20	; 0x07
     b32:	58 87       	std	Y+8, r21	; 0x08
     b34:	ce 01       	movw	r24, r28
     b36:	01 96       	adiw	r24, 0x01	; 1
     b38:	be 01       	movw	r22, r28
     b3a:	67 5f       	subi	r22, 0xF7	; 247
     b3c:	7f 4f       	sbci	r23, 0xFF	; 255
     b3e:	64 d3       	rcall	.+1736   	; 0x1208 <__unpack_f>
     b40:	ce 01       	movw	r24, r28
     b42:	05 96       	adiw	r24, 0x05	; 5
     b44:	be 01       	movw	r22, r28
     b46:	6f 5e       	subi	r22, 0xEF	; 239
     b48:	7f 4f       	sbci	r23, 0xFF	; 255
     b4a:	5e d3       	rcall	.+1724   	; 0x1208 <__unpack_f>
     b4c:	99 85       	ldd	r25, Y+9	; 0x09
     b4e:	92 30       	cpi	r25, 0x02	; 2
     b50:	78 f0       	brcs	.+30     	; 0xb70 <__mulsf3+0x56>
     b52:	89 89       	ldd	r24, Y+17	; 0x11
     b54:	82 30       	cpi	r24, 0x02	; 2
     b56:	c0 f0       	brcs	.+48     	; 0xb88 <__mulsf3+0x6e>
     b58:	94 30       	cpi	r25, 0x04	; 4
     b5a:	19 f4       	brne	.+6      	; 0xb62 <__mulsf3+0x48>
     b5c:	82 30       	cpi	r24, 0x02	; 2
     b5e:	41 f4       	brne	.+16     	; 0xb70 <__mulsf3+0x56>
     b60:	cb c0       	rjmp	.+406    	; 0xcf8 <__mulsf3+0x1de>
     b62:	84 30       	cpi	r24, 0x04	; 4
     b64:	19 f4       	brne	.+6      	; 0xb6c <__mulsf3+0x52>
     b66:	92 30       	cpi	r25, 0x02	; 2
     b68:	79 f4       	brne	.+30     	; 0xb88 <__mulsf3+0x6e>
     b6a:	c6 c0       	rjmp	.+396    	; 0xcf8 <__mulsf3+0x1de>
     b6c:	92 30       	cpi	r25, 0x02	; 2
     b6e:	51 f4       	brne	.+20     	; 0xb84 <__mulsf3+0x6a>
     b70:	81 e0       	ldi	r24, 0x01	; 1
     b72:	2a 85       	ldd	r18, Y+10	; 0x0a
     b74:	9a 89       	ldd	r25, Y+18	; 0x12
     b76:	29 17       	cp	r18, r25
     b78:	09 f4       	brne	.+2      	; 0xb7c <__mulsf3+0x62>
     b7a:	80 e0       	ldi	r24, 0x00	; 0
     b7c:	8a 87       	std	Y+10, r24	; 0x0a
     b7e:	ce 01       	movw	r24, r28
     b80:	09 96       	adiw	r24, 0x09	; 9
     b82:	bc c0       	rjmp	.+376    	; 0xcfc <__mulsf3+0x1e2>
     b84:	82 30       	cpi	r24, 0x02	; 2
     b86:	51 f4       	brne	.+20     	; 0xb9c <__mulsf3+0x82>
     b88:	81 e0       	ldi	r24, 0x01	; 1
     b8a:	2a 85       	ldd	r18, Y+10	; 0x0a
     b8c:	9a 89       	ldd	r25, Y+18	; 0x12
     b8e:	29 17       	cp	r18, r25
     b90:	09 f4       	brne	.+2      	; 0xb94 <__mulsf3+0x7a>
     b92:	80 e0       	ldi	r24, 0x00	; 0
     b94:	8a 8b       	std	Y+18, r24	; 0x12
     b96:	ce 01       	movw	r24, r28
     b98:	41 96       	adiw	r24, 0x11	; 17
     b9a:	b0 c0       	rjmp	.+352    	; 0xcfc <__mulsf3+0x1e2>
     b9c:	6d 84       	ldd	r6, Y+13	; 0x0d
     b9e:	7e 84       	ldd	r7, Y+14	; 0x0e
     ba0:	8f 84       	ldd	r8, Y+15	; 0x0f
     ba2:	98 88       	ldd	r9, Y+16	; 0x10
     ba4:	ed 88       	ldd	r14, Y+21	; 0x15
     ba6:	fe 88       	ldd	r15, Y+22	; 0x16
     ba8:	0f 89       	ldd	r16, Y+23	; 0x17
     baa:	18 8d       	ldd	r17, Y+24	; 0x18
     bac:	e0 e2       	ldi	r30, 0x20	; 32
     bae:	f0 e0       	ldi	r31, 0x00	; 0
     bb0:	80 e0       	ldi	r24, 0x00	; 0
     bb2:	90 e0       	ldi	r25, 0x00	; 0
     bb4:	dc 01       	movw	r26, r24
     bb6:	aa 24       	eor	r10, r10
     bb8:	bb 24       	eor	r11, r11
     bba:	65 01       	movw	r12, r10
     bbc:	20 e0       	ldi	r18, 0x00	; 0
     bbe:	30 e0       	ldi	r19, 0x00	; 0
     bc0:	a9 01       	movw	r20, r18
     bc2:	b3 01       	movw	r22, r6
     bc4:	61 70       	andi	r22, 0x01	; 1
     bc6:	70 70       	andi	r23, 0x00	; 0
     bc8:	61 15       	cp	r22, r1
     bca:	71 05       	cpc	r23, r1
     bcc:	d1 f0       	breq	.+52     	; 0xc02 <__mulsf3+0xe8>
     bce:	2e 0d       	add	r18, r14
     bd0:	3f 1d       	adc	r19, r15
     bd2:	40 1f       	adc	r20, r16
     bd4:	51 1f       	adc	r21, r17
     bd6:	15 01       	movw	r2, r10
     bd8:	26 01       	movw	r4, r12
     bda:	28 0e       	add	r2, r24
     bdc:	39 1e       	adc	r3, r25
     bde:	4a 1e       	adc	r4, r26
     be0:	5b 1e       	adc	r5, r27
     be2:	81 e0       	ldi	r24, 0x01	; 1
     be4:	90 e0       	ldi	r25, 0x00	; 0
     be6:	a0 e0       	ldi	r26, 0x00	; 0
     be8:	b0 e0       	ldi	r27, 0x00	; 0
     bea:	2e 15       	cp	r18, r14
     bec:	3f 05       	cpc	r19, r15
     bee:	40 07       	cpc	r20, r16
     bf0:	51 07       	cpc	r21, r17
     bf2:	18 f0       	brcs	.+6      	; 0xbfa <__mulsf3+0xe0>
     bf4:	80 e0       	ldi	r24, 0x00	; 0
     bf6:	90 e0       	ldi	r25, 0x00	; 0
     bf8:	dc 01       	movw	r26, r24
     bfa:	82 0d       	add	r24, r2
     bfc:	93 1d       	adc	r25, r3
     bfe:	a4 1d       	adc	r26, r4
     c00:	b5 1d       	adc	r27, r5
     c02:	aa 0c       	add	r10, r10
     c04:	bb 1c       	adc	r11, r11
     c06:	cc 1c       	adc	r12, r12
     c08:	dd 1c       	adc	r13, r13
     c0a:	17 ff       	sbrs	r17, 7
     c0c:	09 c0       	rjmp	.+18     	; 0xc20 <__mulsf3+0x106>
     c0e:	61 e0       	ldi	r22, 0x01	; 1
     c10:	26 2e       	mov	r2, r22
     c12:	31 2c       	mov	r3, r1
     c14:	41 2c       	mov	r4, r1
     c16:	51 2c       	mov	r5, r1
     c18:	a2 28       	or	r10, r2
     c1a:	b3 28       	or	r11, r3
     c1c:	c4 28       	or	r12, r4
     c1e:	d5 28       	or	r13, r5
     c20:	31 97       	sbiw	r30, 0x01	; 1
     c22:	49 f0       	breq	.+18     	; 0xc36 <__mulsf3+0x11c>
     c24:	ee 0c       	add	r14, r14
     c26:	ff 1c       	adc	r15, r15
     c28:	00 1f       	adc	r16, r16
     c2a:	11 1f       	adc	r17, r17
     c2c:	96 94       	lsr	r9
     c2e:	87 94       	ror	r8
     c30:	77 94       	ror	r7
     c32:	67 94       	ror	r6
     c34:	c6 cf       	rjmp	.-116    	; 0xbc2 <__mulsf3+0xa8>
     c36:	6b 89       	ldd	r22, Y+19	; 0x13
     c38:	7c 89       	ldd	r23, Y+20	; 0x14
     c3a:	eb 85       	ldd	r30, Y+11	; 0x0b
     c3c:	fc 85       	ldd	r31, Y+12	; 0x0c
     c3e:	6e 0f       	add	r22, r30
     c40:	7f 1f       	adc	r23, r31
     c42:	6e 5f       	subi	r22, 0xFE	; 254
     c44:	7f 4f       	sbci	r23, 0xFF	; 255
     c46:	7c 8f       	std	Y+28, r23	; 0x1c
     c48:	6b 8f       	std	Y+27, r22	; 0x1b
     c4a:	61 e0       	ldi	r22, 0x01	; 1
     c4c:	ea 85       	ldd	r30, Y+10	; 0x0a
     c4e:	7a 89       	ldd	r23, Y+18	; 0x12
     c50:	e7 17       	cp	r30, r23
     c52:	09 f4       	brne	.+2      	; 0xc56 <__mulsf3+0x13c>
     c54:	60 e0       	ldi	r22, 0x00	; 0
     c56:	6a 8f       	std	Y+26, r22	; 0x1a
     c58:	6b 8d       	ldd	r22, Y+27	; 0x1b
     c5a:	7c 8d       	ldd	r23, Y+28	; 0x1c
     c5c:	10 c0       	rjmp	.+32     	; 0xc7e <__mulsf3+0x164>
     c5e:	fc 01       	movw	r30, r24
     c60:	e1 70       	andi	r30, 0x01	; 1
     c62:	f0 70       	andi	r31, 0x00	; 0
     c64:	30 97       	sbiw	r30, 0x00	; 0
     c66:	29 f0       	breq	.+10     	; 0xc72 <__mulsf3+0x158>
     c68:	56 95       	lsr	r21
     c6a:	47 95       	ror	r20
     c6c:	37 95       	ror	r19
     c6e:	27 95       	ror	r18
     c70:	50 68       	ori	r21, 0x80	; 128
     c72:	b6 95       	lsr	r27
     c74:	a7 95       	ror	r26
     c76:	97 95       	ror	r25
     c78:	87 95       	ror	r24
     c7a:	6f 5f       	subi	r22, 0xFF	; 255
     c7c:	7f 4f       	sbci	r23, 0xFF	; 255
     c7e:	b7 fd       	sbrc	r27, 7
     c80:	ee cf       	rjmp	.-36     	; 0xc5e <__mulsf3+0x144>
     c82:	0c c0       	rjmp	.+24     	; 0xc9c <__mulsf3+0x182>
     c84:	88 0f       	add	r24, r24
     c86:	99 1f       	adc	r25, r25
     c88:	aa 1f       	adc	r26, r26
     c8a:	bb 1f       	adc	r27, r27
     c8c:	57 fd       	sbrc	r21, 7
     c8e:	81 60       	ori	r24, 0x01	; 1
     c90:	22 0f       	add	r18, r18
     c92:	33 1f       	adc	r19, r19
     c94:	44 1f       	adc	r20, r20
     c96:	55 1f       	adc	r21, r21
     c98:	61 50       	subi	r22, 0x01	; 1
     c9a:	70 40       	sbci	r23, 0x00	; 0
     c9c:	80 30       	cpi	r24, 0x00	; 0
     c9e:	e0 e0       	ldi	r30, 0x00	; 0
     ca0:	9e 07       	cpc	r25, r30
     ca2:	e0 e0       	ldi	r30, 0x00	; 0
     ca4:	ae 07       	cpc	r26, r30
     ca6:	e0 e4       	ldi	r30, 0x40	; 64
     ca8:	be 07       	cpc	r27, r30
     caa:	60 f3       	brcs	.-40     	; 0xc84 <__mulsf3+0x16a>
     cac:	6b 8f       	std	Y+27, r22	; 0x1b
     cae:	7c 8f       	std	Y+28, r23	; 0x1c
     cb0:	6f e7       	ldi	r22, 0x7F	; 127
     cb2:	e6 2e       	mov	r14, r22
     cb4:	f1 2c       	mov	r15, r1
     cb6:	01 2d       	mov	r16, r1
     cb8:	11 2d       	mov	r17, r1
     cba:	e8 22       	and	r14, r24
     cbc:	f9 22       	and	r15, r25
     cbe:	0a 23       	and	r16, r26
     cc0:	1b 23       	and	r17, r27
     cc2:	60 e4       	ldi	r22, 0x40	; 64
     cc4:	e6 16       	cp	r14, r22
     cc6:	f1 04       	cpc	r15, r1
     cc8:	01 05       	cpc	r16, r1
     cca:	11 05       	cpc	r17, r1
     ccc:	61 f4       	brne	.+24     	; 0xce6 <__mulsf3+0x1cc>
     cce:	87 fd       	sbrc	r24, 7
     cd0:	0a c0       	rjmp	.+20     	; 0xce6 <__mulsf3+0x1cc>
     cd2:	21 15       	cp	r18, r1
     cd4:	31 05       	cpc	r19, r1
     cd6:	41 05       	cpc	r20, r1
     cd8:	51 05       	cpc	r21, r1
     cda:	29 f0       	breq	.+10     	; 0xce6 <__mulsf3+0x1cc>
     cdc:	80 5c       	subi	r24, 0xC0	; 192
     cde:	9f 4f       	sbci	r25, 0xFF	; 255
     ce0:	af 4f       	sbci	r26, 0xFF	; 255
     ce2:	bf 4f       	sbci	r27, 0xFF	; 255
     ce4:	80 78       	andi	r24, 0x80	; 128
     ce6:	8d 8f       	std	Y+29, r24	; 0x1d
     ce8:	9e 8f       	std	Y+30, r25	; 0x1e
     cea:	af 8f       	std	Y+31, r26	; 0x1f
     cec:	b8 a3       	std	Y+32, r27	; 0x20
     cee:	83 e0       	ldi	r24, 0x03	; 3
     cf0:	89 8f       	std	Y+25, r24	; 0x19
     cf2:	ce 01       	movw	r24, r28
     cf4:	49 96       	adiw	r24, 0x19	; 25
     cf6:	02 c0       	rjmp	.+4      	; 0xcfc <__mulsf3+0x1e2>
     cf8:	8b e9       	ldi	r24, 0x9B	; 155
     cfa:	90 e0       	ldi	r25, 0x00	; 0
     cfc:	b8 d1       	rcall	.+880    	; 0x106e <__pack_f>
     cfe:	a0 96       	adiw	r28, 0x20	; 32
     d00:	e2 e1       	ldi	r30, 0x12	; 18
     d02:	60 c3       	rjmp	.+1728   	; 0x13c4 <__epilogue_restores__>

00000d04 <__divsf3>:
     d04:	a8 e1       	ldi	r26, 0x18	; 24
     d06:	b0 e0       	ldi	r27, 0x00	; 0
     d08:	e7 e8       	ldi	r30, 0x87	; 135
     d0a:	f6 e0       	ldi	r31, 0x06	; 6
     d0c:	47 c3       	rjmp	.+1678   	; 0x139c <__prologue_saves__+0x10>
     d0e:	69 83       	std	Y+1, r22	; 0x01
     d10:	7a 83       	std	Y+2, r23	; 0x02
     d12:	8b 83       	std	Y+3, r24	; 0x03
     d14:	9c 83       	std	Y+4, r25	; 0x04
     d16:	2d 83       	std	Y+5, r18	; 0x05
     d18:	3e 83       	std	Y+6, r19	; 0x06
     d1a:	4f 83       	std	Y+7, r20	; 0x07
     d1c:	58 87       	std	Y+8, r21	; 0x08
     d1e:	8e 01       	movw	r16, r28
     d20:	07 5f       	subi	r16, 0xF7	; 247
     d22:	1f 4f       	sbci	r17, 0xFF	; 255
     d24:	ce 01       	movw	r24, r28
     d26:	01 96       	adiw	r24, 0x01	; 1
     d28:	b8 01       	movw	r22, r16
     d2a:	6e d2       	rcall	.+1244   	; 0x1208 <__unpack_f>
     d2c:	81 e1       	ldi	r24, 0x11	; 17
     d2e:	e8 2e       	mov	r14, r24
     d30:	f1 2c       	mov	r15, r1
     d32:	ec 0e       	add	r14, r28
     d34:	fd 1e       	adc	r15, r29
     d36:	ce 01       	movw	r24, r28
     d38:	05 96       	adiw	r24, 0x05	; 5
     d3a:	b7 01       	movw	r22, r14
     d3c:	65 d2       	rcall	.+1226   	; 0x1208 <__unpack_f>
     d3e:	99 85       	ldd	r25, Y+9	; 0x09
     d40:	92 30       	cpi	r25, 0x02	; 2
     d42:	08 f4       	brcc	.+2      	; 0xd46 <__divsf3+0x42>
     d44:	83 c0       	rjmp	.+262    	; 0xe4c <__divsf3+0x148>
     d46:	89 89       	ldd	r24, Y+17	; 0x11
     d48:	82 30       	cpi	r24, 0x02	; 2
     d4a:	08 f4       	brcc	.+2      	; 0xd4e <__divsf3+0x4a>
     d4c:	7b c0       	rjmp	.+246    	; 0xe44 <__divsf3+0x140>
     d4e:	2a 85       	ldd	r18, Y+10	; 0x0a
     d50:	3a 89       	ldd	r19, Y+18	; 0x12
     d52:	23 27       	eor	r18, r19
     d54:	2a 87       	std	Y+10, r18	; 0x0a
     d56:	94 30       	cpi	r25, 0x04	; 4
     d58:	11 f0       	breq	.+4      	; 0xd5e <__divsf3+0x5a>
     d5a:	92 30       	cpi	r25, 0x02	; 2
     d5c:	21 f4       	brne	.+8      	; 0xd66 <__divsf3+0x62>
     d5e:	98 17       	cp	r25, r24
     d60:	09 f0       	breq	.+2      	; 0xd64 <__divsf3+0x60>
     d62:	6c c0       	rjmp	.+216    	; 0xe3c <__divsf3+0x138>
     d64:	71 c0       	rjmp	.+226    	; 0xe48 <__divsf3+0x144>
     d66:	84 30       	cpi	r24, 0x04	; 4
     d68:	39 f4       	brne	.+14     	; 0xd78 <__divsf3+0x74>
     d6a:	1d 86       	std	Y+13, r1	; 0x0d
     d6c:	1e 86       	std	Y+14, r1	; 0x0e
     d6e:	1f 86       	std	Y+15, r1	; 0x0f
     d70:	18 8a       	std	Y+16, r1	; 0x10
     d72:	1c 86       	std	Y+12, r1	; 0x0c
     d74:	1b 86       	std	Y+11, r1	; 0x0b
     d76:	6a c0       	rjmp	.+212    	; 0xe4c <__divsf3+0x148>
     d78:	82 30       	cpi	r24, 0x02	; 2
     d7a:	19 f4       	brne	.+6      	; 0xd82 <__divsf3+0x7e>
     d7c:	84 e0       	ldi	r24, 0x04	; 4
     d7e:	89 87       	std	Y+9, r24	; 0x09
     d80:	65 c0       	rjmp	.+202    	; 0xe4c <__divsf3+0x148>
     d82:	8b 85       	ldd	r24, Y+11	; 0x0b
     d84:	9c 85       	ldd	r25, Y+12	; 0x0c
     d86:	2b 89       	ldd	r18, Y+19	; 0x13
     d88:	3c 89       	ldd	r19, Y+20	; 0x14
     d8a:	82 1b       	sub	r24, r18
     d8c:	93 0b       	sbc	r25, r19
     d8e:	9c 87       	std	Y+12, r25	; 0x0c
     d90:	8b 87       	std	Y+11, r24	; 0x0b
     d92:	2d 85       	ldd	r18, Y+13	; 0x0d
     d94:	3e 85       	ldd	r19, Y+14	; 0x0e
     d96:	4f 85       	ldd	r20, Y+15	; 0x0f
     d98:	58 89       	ldd	r21, Y+16	; 0x10
     d9a:	ed 88       	ldd	r14, Y+21	; 0x15
     d9c:	fe 88       	ldd	r15, Y+22	; 0x16
     d9e:	0f 89       	ldd	r16, Y+23	; 0x17
     da0:	18 8d       	ldd	r17, Y+24	; 0x18
     da2:	2e 15       	cp	r18, r14
     da4:	3f 05       	cpc	r19, r15
     da6:	40 07       	cpc	r20, r16
     da8:	51 07       	cpc	r21, r17
     daa:	38 f4       	brcc	.+14     	; 0xdba <__divsf3+0xb6>
     dac:	22 0f       	add	r18, r18
     dae:	33 1f       	adc	r19, r19
     db0:	44 1f       	adc	r20, r20
     db2:	55 1f       	adc	r21, r21
     db4:	01 97       	sbiw	r24, 0x01	; 1
     db6:	9c 87       	std	Y+12, r25	; 0x0c
     db8:	8b 87       	std	Y+11, r24	; 0x0b
     dba:	6f e1       	ldi	r22, 0x1F	; 31
     dbc:	70 e0       	ldi	r23, 0x00	; 0
     dbe:	a1 2c       	mov	r10, r1
     dc0:	b1 2c       	mov	r11, r1
     dc2:	c1 2c       	mov	r12, r1
     dc4:	a0 e4       	ldi	r26, 0x40	; 64
     dc6:	da 2e       	mov	r13, r26
     dc8:	80 e0       	ldi	r24, 0x00	; 0
     dca:	90 e0       	ldi	r25, 0x00	; 0
     dcc:	dc 01       	movw	r26, r24
     dce:	2e 15       	cp	r18, r14
     dd0:	3f 05       	cpc	r19, r15
     dd2:	40 07       	cpc	r20, r16
     dd4:	51 07       	cpc	r21, r17
     dd6:	40 f0       	brcs	.+16     	; 0xde8 <__divsf3+0xe4>
     dd8:	8a 29       	or	r24, r10
     dda:	9b 29       	or	r25, r11
     ddc:	ac 29       	or	r26, r12
     dde:	bd 29       	or	r27, r13
     de0:	2e 19       	sub	r18, r14
     de2:	3f 09       	sbc	r19, r15
     de4:	40 0b       	sbc	r20, r16
     de6:	51 0b       	sbc	r21, r17
     de8:	d6 94       	lsr	r13
     dea:	c7 94       	ror	r12
     dec:	b7 94       	ror	r11
     dee:	a7 94       	ror	r10
     df0:	22 0f       	add	r18, r18
     df2:	33 1f       	adc	r19, r19
     df4:	44 1f       	adc	r20, r20
     df6:	55 1f       	adc	r21, r21
     df8:	61 50       	subi	r22, 0x01	; 1
     dfa:	70 40       	sbci	r23, 0x00	; 0
     dfc:	41 f7       	brne	.-48     	; 0xdce <__divsf3+0xca>
     dfe:	6f e7       	ldi	r22, 0x7F	; 127
     e00:	e6 2e       	mov	r14, r22
     e02:	f1 2c       	mov	r15, r1
     e04:	01 2d       	mov	r16, r1
     e06:	11 2d       	mov	r17, r1
     e08:	e8 22       	and	r14, r24
     e0a:	f9 22       	and	r15, r25
     e0c:	0a 23       	and	r16, r26
     e0e:	1b 23       	and	r17, r27
     e10:	60 e4       	ldi	r22, 0x40	; 64
     e12:	e6 16       	cp	r14, r22
     e14:	f1 04       	cpc	r15, r1
     e16:	01 05       	cpc	r16, r1
     e18:	11 05       	cpc	r17, r1
     e1a:	61 f4       	brne	.+24     	; 0xe34 <__divsf3+0x130>
     e1c:	87 fd       	sbrc	r24, 7
     e1e:	0a c0       	rjmp	.+20     	; 0xe34 <__divsf3+0x130>
     e20:	21 15       	cp	r18, r1
     e22:	31 05       	cpc	r19, r1
     e24:	41 05       	cpc	r20, r1
     e26:	51 05       	cpc	r21, r1
     e28:	29 f0       	breq	.+10     	; 0xe34 <__divsf3+0x130>
     e2a:	80 5c       	subi	r24, 0xC0	; 192
     e2c:	9f 4f       	sbci	r25, 0xFF	; 255
     e2e:	af 4f       	sbci	r26, 0xFF	; 255
     e30:	bf 4f       	sbci	r27, 0xFF	; 255
     e32:	80 78       	andi	r24, 0x80	; 128
     e34:	8d 87       	std	Y+13, r24	; 0x0d
     e36:	9e 87       	std	Y+14, r25	; 0x0e
     e38:	af 87       	std	Y+15, r26	; 0x0f
     e3a:	b8 8b       	std	Y+16, r27	; 0x10
     e3c:	8e 01       	movw	r16, r28
     e3e:	07 5f       	subi	r16, 0xF7	; 247
     e40:	1f 4f       	sbci	r17, 0xFF	; 255
     e42:	04 c0       	rjmp	.+8      	; 0xe4c <__divsf3+0x148>
     e44:	87 01       	movw	r16, r14
     e46:	02 c0       	rjmp	.+4      	; 0xe4c <__divsf3+0x148>
     e48:	0b e9       	ldi	r16, 0x9B	; 155
     e4a:	10 e0       	ldi	r17, 0x00	; 0
     e4c:	c8 01       	movw	r24, r16
     e4e:	0f d1       	rcall	.+542    	; 0x106e <__pack_f>
     e50:	68 96       	adiw	r28, 0x18	; 24
     e52:	ea e0       	ldi	r30, 0x0A	; 10
     e54:	bf c2       	rjmp	.+1406   	; 0x13d4 <__epilogue_restores__+0x10>

00000e56 <__gtsf2>:
     e56:	a8 e1       	ldi	r26, 0x18	; 24
     e58:	b0 e0       	ldi	r27, 0x00	; 0
     e5a:	e0 e3       	ldi	r30, 0x30	; 48
     e5c:	f7 e0       	ldi	r31, 0x07	; 7
     e5e:	a2 c2       	rjmp	.+1348   	; 0x13a4 <__prologue_saves__+0x18>
     e60:	69 83       	std	Y+1, r22	; 0x01
     e62:	7a 83       	std	Y+2, r23	; 0x02
     e64:	8b 83       	std	Y+3, r24	; 0x03
     e66:	9c 83       	std	Y+4, r25	; 0x04
     e68:	2d 83       	std	Y+5, r18	; 0x05
     e6a:	3e 83       	std	Y+6, r19	; 0x06
     e6c:	4f 83       	std	Y+7, r20	; 0x07
     e6e:	58 87       	std	Y+8, r21	; 0x08
     e70:	8e 01       	movw	r16, r28
     e72:	07 5f       	subi	r16, 0xF7	; 247
     e74:	1f 4f       	sbci	r17, 0xFF	; 255
     e76:	ce 01       	movw	r24, r28
     e78:	01 96       	adiw	r24, 0x01	; 1
     e7a:	b8 01       	movw	r22, r16
     e7c:	c5 d1       	rcall	.+906    	; 0x1208 <__unpack_f>
     e7e:	81 e1       	ldi	r24, 0x11	; 17
     e80:	e8 2e       	mov	r14, r24
     e82:	f1 2c       	mov	r15, r1
     e84:	ec 0e       	add	r14, r28
     e86:	fd 1e       	adc	r15, r29
     e88:	ce 01       	movw	r24, r28
     e8a:	05 96       	adiw	r24, 0x05	; 5
     e8c:	b7 01       	movw	r22, r14
     e8e:	bc d1       	rcall	.+888    	; 0x1208 <__unpack_f>
     e90:	89 85       	ldd	r24, Y+9	; 0x09
     e92:	82 30       	cpi	r24, 0x02	; 2
     e94:	38 f0       	brcs	.+14     	; 0xea4 <__gtsf2+0x4e>
     e96:	89 89       	ldd	r24, Y+17	; 0x11
     e98:	82 30       	cpi	r24, 0x02	; 2
     e9a:	20 f0       	brcs	.+8      	; 0xea4 <__gtsf2+0x4e>
     e9c:	c8 01       	movw	r24, r16
     e9e:	b7 01       	movw	r22, r14
     ea0:	1c d2       	rcall	.+1080   	; 0x12da <__fpcmp_parts_f>
     ea2:	01 c0       	rjmp	.+2      	; 0xea6 <__gtsf2+0x50>
     ea4:	8f ef       	ldi	r24, 0xFF	; 255
     ea6:	68 96       	adiw	r28, 0x18	; 24
     ea8:	e6 e0       	ldi	r30, 0x06	; 6
     eaa:	98 c2       	rjmp	.+1328   	; 0x13dc <__epilogue_restores__+0x18>

00000eac <__lesf2>:
     eac:	a8 e1       	ldi	r26, 0x18	; 24
     eae:	b0 e0       	ldi	r27, 0x00	; 0
     eb0:	eb e5       	ldi	r30, 0x5B	; 91
     eb2:	f7 e0       	ldi	r31, 0x07	; 7
     eb4:	77 c2       	rjmp	.+1262   	; 0x13a4 <__prologue_saves__+0x18>
     eb6:	69 83       	std	Y+1, r22	; 0x01
     eb8:	7a 83       	std	Y+2, r23	; 0x02
     eba:	8b 83       	std	Y+3, r24	; 0x03
     ebc:	9c 83       	std	Y+4, r25	; 0x04
     ebe:	2d 83       	std	Y+5, r18	; 0x05
     ec0:	3e 83       	std	Y+6, r19	; 0x06
     ec2:	4f 83       	std	Y+7, r20	; 0x07
     ec4:	58 87       	std	Y+8, r21	; 0x08
     ec6:	8e 01       	movw	r16, r28
     ec8:	07 5f       	subi	r16, 0xF7	; 247
     eca:	1f 4f       	sbci	r17, 0xFF	; 255
     ecc:	ce 01       	movw	r24, r28
     ece:	01 96       	adiw	r24, 0x01	; 1
     ed0:	b8 01       	movw	r22, r16
     ed2:	9a d1       	rcall	.+820    	; 0x1208 <__unpack_f>
     ed4:	81 e1       	ldi	r24, 0x11	; 17
     ed6:	e8 2e       	mov	r14, r24
     ed8:	f1 2c       	mov	r15, r1
     eda:	ec 0e       	add	r14, r28
     edc:	fd 1e       	adc	r15, r29
     ede:	ce 01       	movw	r24, r28
     ee0:	05 96       	adiw	r24, 0x05	; 5
     ee2:	b7 01       	movw	r22, r14
     ee4:	91 d1       	rcall	.+802    	; 0x1208 <__unpack_f>
     ee6:	89 85       	ldd	r24, Y+9	; 0x09
     ee8:	82 30       	cpi	r24, 0x02	; 2
     eea:	38 f0       	brcs	.+14     	; 0xefa <__lesf2+0x4e>
     eec:	89 89       	ldd	r24, Y+17	; 0x11
     eee:	82 30       	cpi	r24, 0x02	; 2
     ef0:	20 f0       	brcs	.+8      	; 0xefa <__lesf2+0x4e>
     ef2:	c8 01       	movw	r24, r16
     ef4:	b7 01       	movw	r22, r14
     ef6:	f1 d1       	rcall	.+994    	; 0x12da <__fpcmp_parts_f>
     ef8:	01 c0       	rjmp	.+2      	; 0xefc <__lesf2+0x50>
     efa:	81 e0       	ldi	r24, 0x01	; 1
     efc:	68 96       	adiw	r28, 0x18	; 24
     efe:	e6 e0       	ldi	r30, 0x06	; 6
     f00:	6d c2       	rjmp	.+1242   	; 0x13dc <__epilogue_restores__+0x18>

00000f02 <__floatsisf>:
     f02:	a8 e0       	ldi	r26, 0x08	; 8
     f04:	b0 e0       	ldi	r27, 0x00	; 0
     f06:	e6 e8       	ldi	r30, 0x86	; 134
     f08:	f7 e0       	ldi	r31, 0x07	; 7
     f0a:	4c c2       	rjmp	.+1176   	; 0x13a4 <__prologue_saves__+0x18>
     f0c:	7b 01       	movw	r14, r22
     f0e:	8c 01       	movw	r16, r24
     f10:	83 e0       	ldi	r24, 0x03	; 3
     f12:	89 83       	std	Y+1, r24	; 0x01
     f14:	d8 01       	movw	r26, r16
     f16:	c7 01       	movw	r24, r14
     f18:	88 27       	eor	r24, r24
     f1a:	b7 fd       	sbrc	r27, 7
     f1c:	83 95       	inc	r24
     f1e:	99 27       	eor	r25, r25
     f20:	aa 27       	eor	r26, r26
     f22:	bb 27       	eor	r27, r27
     f24:	28 2f       	mov	r18, r24
     f26:	8a 83       	std	Y+2, r24	; 0x02
     f28:	e1 14       	cp	r14, r1
     f2a:	f1 04       	cpc	r15, r1
     f2c:	01 05       	cpc	r16, r1
     f2e:	11 05       	cpc	r17, r1
     f30:	19 f4       	brne	.+6      	; 0xf38 <__floatsisf+0x36>
     f32:	82 e0       	ldi	r24, 0x02	; 2
     f34:	89 83       	std	Y+1, r24	; 0x01
     f36:	36 c0       	rjmp	.+108    	; 0xfa4 <__floatsisf+0xa2>
     f38:	8e e1       	ldi	r24, 0x1E	; 30
     f3a:	90 e0       	ldi	r25, 0x00	; 0
     f3c:	9c 83       	std	Y+4, r25	; 0x04
     f3e:	8b 83       	std	Y+3, r24	; 0x03
     f40:	22 23       	and	r18, r18
     f42:	89 f0       	breq	.+34     	; 0xf66 <__floatsisf+0x64>
     f44:	80 e0       	ldi	r24, 0x00	; 0
     f46:	e8 16       	cp	r14, r24
     f48:	80 e0       	ldi	r24, 0x00	; 0
     f4a:	f8 06       	cpc	r15, r24
     f4c:	80 e0       	ldi	r24, 0x00	; 0
     f4e:	08 07       	cpc	r16, r24
     f50:	80 e8       	ldi	r24, 0x80	; 128
     f52:	18 07       	cpc	r17, r24
     f54:	59 f1       	breq	.+86     	; 0xfac <__floatsisf+0xaa>
     f56:	10 95       	com	r17
     f58:	00 95       	com	r16
     f5a:	f0 94       	com	r15
     f5c:	e0 94       	com	r14
     f5e:	e1 1c       	adc	r14, r1
     f60:	f1 1c       	adc	r15, r1
     f62:	01 1d       	adc	r16, r1
     f64:	11 1d       	adc	r17, r1
     f66:	ed 82       	std	Y+5, r14	; 0x05
     f68:	fe 82       	std	Y+6, r15	; 0x06
     f6a:	0f 83       	std	Y+7, r16	; 0x07
     f6c:	18 87       	std	Y+8, r17	; 0x08
     f6e:	c8 01       	movw	r24, r16
     f70:	b7 01       	movw	r22, r14
     f72:	23 d0       	rcall	.+70     	; 0xfba <__clzsi2>
     f74:	9c 01       	movw	r18, r24
     f76:	21 50       	subi	r18, 0x01	; 1
     f78:	30 40       	sbci	r19, 0x00	; 0
     f7a:	12 16       	cp	r1, r18
     f7c:	13 06       	cpc	r1, r19
     f7e:	94 f4       	brge	.+36     	; 0xfa4 <__floatsisf+0xa2>
     f80:	02 2e       	mov	r0, r18
     f82:	04 c0       	rjmp	.+8      	; 0xf8c <__floatsisf+0x8a>
     f84:	ee 0c       	add	r14, r14
     f86:	ff 1c       	adc	r15, r15
     f88:	00 1f       	adc	r16, r16
     f8a:	11 1f       	adc	r17, r17
     f8c:	0a 94       	dec	r0
     f8e:	d2 f7       	brpl	.-12     	; 0xf84 <__floatsisf+0x82>
     f90:	ed 82       	std	Y+5, r14	; 0x05
     f92:	fe 82       	std	Y+6, r15	; 0x06
     f94:	0f 83       	std	Y+7, r16	; 0x07
     f96:	18 87       	std	Y+8, r17	; 0x08
     f98:	8e e1       	ldi	r24, 0x1E	; 30
     f9a:	90 e0       	ldi	r25, 0x00	; 0
     f9c:	82 1b       	sub	r24, r18
     f9e:	93 0b       	sbc	r25, r19
     fa0:	9c 83       	std	Y+4, r25	; 0x04
     fa2:	8b 83       	std	Y+3, r24	; 0x03
     fa4:	ce 01       	movw	r24, r28
     fa6:	01 96       	adiw	r24, 0x01	; 1
     fa8:	62 d0       	rcall	.+196    	; 0x106e <__pack_f>
     faa:	04 c0       	rjmp	.+8      	; 0xfb4 <__floatsisf+0xb2>
     fac:	60 e0       	ldi	r22, 0x00	; 0
     fae:	70 e0       	ldi	r23, 0x00	; 0
     fb0:	80 e0       	ldi	r24, 0x00	; 0
     fb2:	9f ec       	ldi	r25, 0xCF	; 207
     fb4:	28 96       	adiw	r28, 0x08	; 8
     fb6:	e6 e0       	ldi	r30, 0x06	; 6
     fb8:	11 c2       	rjmp	.+1058   	; 0x13dc <__epilogue_restores__+0x18>

00000fba <__clzsi2>:
     fba:	af 92       	push	r10
     fbc:	bf 92       	push	r11
     fbe:	cf 92       	push	r12
     fc0:	df 92       	push	r13
     fc2:	ef 92       	push	r14
     fc4:	ff 92       	push	r15
     fc6:	0f 93       	push	r16
     fc8:	1f 93       	push	r17
     fca:	7b 01       	movw	r14, r22
     fcc:	8c 01       	movw	r16, r24
     fce:	80 e0       	ldi	r24, 0x00	; 0
     fd0:	e8 16       	cp	r14, r24
     fd2:	80 e0       	ldi	r24, 0x00	; 0
     fd4:	f8 06       	cpc	r15, r24
     fd6:	81 e0       	ldi	r24, 0x01	; 1
     fd8:	08 07       	cpc	r16, r24
     fda:	80 e0       	ldi	r24, 0x00	; 0
     fdc:	18 07       	cpc	r17, r24
     fde:	58 f4       	brcc	.+22     	; 0xff6 <__clzsi2+0x3c>
     fe0:	ef ef       	ldi	r30, 0xFF	; 255
     fe2:	ee 16       	cp	r14, r30
     fe4:	f1 04       	cpc	r15, r1
     fe6:	01 05       	cpc	r16, r1
     fe8:	11 05       	cpc	r17, r1
     fea:	09 f0       	breq	.+2      	; 0xfee <__clzsi2+0x34>
     fec:	90 f4       	brcc	.+36     	; 0x1012 <__clzsi2+0x58>
     fee:	80 e0       	ldi	r24, 0x00	; 0
     ff0:	90 e0       	ldi	r25, 0x00	; 0
     ff2:	dc 01       	movw	r26, r24
     ff4:	17 c0       	rjmp	.+46     	; 0x1024 <__clzsi2+0x6a>
     ff6:	f0 e0       	ldi	r31, 0x00	; 0
     ff8:	ef 16       	cp	r14, r31
     ffa:	f0 e0       	ldi	r31, 0x00	; 0
     ffc:	ff 06       	cpc	r15, r31
     ffe:	f0 e0       	ldi	r31, 0x00	; 0
    1000:	0f 07       	cpc	r16, r31
    1002:	f1 e0       	ldi	r31, 0x01	; 1
    1004:	1f 07       	cpc	r17, r31
    1006:	50 f4       	brcc	.+20     	; 0x101c <__clzsi2+0x62>
    1008:	80 e1       	ldi	r24, 0x10	; 16
    100a:	90 e0       	ldi	r25, 0x00	; 0
    100c:	a0 e0       	ldi	r26, 0x00	; 0
    100e:	b0 e0       	ldi	r27, 0x00	; 0
    1010:	09 c0       	rjmp	.+18     	; 0x1024 <__clzsi2+0x6a>
    1012:	88 e0       	ldi	r24, 0x08	; 8
    1014:	90 e0       	ldi	r25, 0x00	; 0
    1016:	a0 e0       	ldi	r26, 0x00	; 0
    1018:	b0 e0       	ldi	r27, 0x00	; 0
    101a:	04 c0       	rjmp	.+8      	; 0x1024 <__clzsi2+0x6a>
    101c:	88 e1       	ldi	r24, 0x18	; 24
    101e:	90 e0       	ldi	r25, 0x00	; 0
    1020:	a0 e0       	ldi	r26, 0x00	; 0
    1022:	b0 e0       	ldi	r27, 0x00	; 0
    1024:	20 e2       	ldi	r18, 0x20	; 32
    1026:	30 e0       	ldi	r19, 0x00	; 0
    1028:	40 e0       	ldi	r20, 0x00	; 0
    102a:	50 e0       	ldi	r21, 0x00	; 0
    102c:	28 1b       	sub	r18, r24
    102e:	39 0b       	sbc	r19, r25
    1030:	4a 0b       	sbc	r20, r26
    1032:	5b 0b       	sbc	r21, r27
    1034:	57 01       	movw	r10, r14
    1036:	68 01       	movw	r12, r16
    1038:	04 c0       	rjmp	.+8      	; 0x1042 <__clzsi2+0x88>
    103a:	d6 94       	lsr	r13
    103c:	c7 94       	ror	r12
    103e:	b7 94       	ror	r11
    1040:	a7 94       	ror	r10
    1042:	8a 95       	dec	r24
    1044:	d2 f7       	brpl	.-12     	; 0x103a <__clzsi2+0x80>
    1046:	d6 01       	movw	r26, r12
    1048:	c5 01       	movw	r24, r10
    104a:	8d 55       	subi	r24, 0x5D	; 93
    104c:	9f 4f       	sbci	r25, 0xFF	; 255
    104e:	fc 01       	movw	r30, r24
    1050:	80 81       	ld	r24, Z
    1052:	28 1b       	sub	r18, r24
    1054:	31 09       	sbc	r19, r1
    1056:	41 09       	sbc	r20, r1
    1058:	51 09       	sbc	r21, r1
    105a:	c9 01       	movw	r24, r18
    105c:	1f 91       	pop	r17
    105e:	0f 91       	pop	r16
    1060:	ff 90       	pop	r15
    1062:	ef 90       	pop	r14
    1064:	df 90       	pop	r13
    1066:	cf 90       	pop	r12
    1068:	bf 90       	pop	r11
    106a:	af 90       	pop	r10
    106c:	08 95       	ret

0000106e <__pack_f>:
    106e:	ef 92       	push	r14
    1070:	ff 92       	push	r15
    1072:	0f 93       	push	r16
    1074:	1f 93       	push	r17
    1076:	cf 93       	push	r28
    1078:	df 93       	push	r29
    107a:	fc 01       	movw	r30, r24
    107c:	24 81       	ldd	r18, Z+4	; 0x04
    107e:	35 81       	ldd	r19, Z+5	; 0x05
    1080:	46 81       	ldd	r20, Z+6	; 0x06
    1082:	57 81       	ldd	r21, Z+7	; 0x07
    1084:	61 81       	ldd	r22, Z+1	; 0x01
    1086:	80 81       	ld	r24, Z
    1088:	82 30       	cpi	r24, 0x02	; 2
    108a:	20 f4       	brcc	.+8      	; 0x1094 <__pack_f+0x26>
    108c:	40 61       	ori	r20, 0x10	; 16
    108e:	ef ef       	ldi	r30, 0xFF	; 255
    1090:	f0 e0       	ldi	r31, 0x00	; 0
    1092:	a3 c0       	rjmp	.+326    	; 0x11da <__pack_f+0x16c>
    1094:	84 30       	cpi	r24, 0x04	; 4
    1096:	09 f4       	brne	.+2      	; 0x109a <__pack_f+0x2c>
    1098:	9b c0       	rjmp	.+310    	; 0x11d0 <__pack_f+0x162>
    109a:	82 30       	cpi	r24, 0x02	; 2
    109c:	09 f4       	brne	.+2      	; 0x10a0 <__pack_f+0x32>
    109e:	92 c0       	rjmp	.+292    	; 0x11c4 <__pack_f+0x156>
    10a0:	21 15       	cp	r18, r1
    10a2:	31 05       	cpc	r19, r1
    10a4:	41 05       	cpc	r20, r1
    10a6:	51 05       	cpc	r21, r1
    10a8:	09 f4       	brne	.+2      	; 0x10ac <__pack_f+0x3e>
    10aa:	8f c0       	rjmp	.+286    	; 0x11ca <__pack_f+0x15c>
    10ac:	02 80       	ldd	r0, Z+2	; 0x02
    10ae:	f3 81       	ldd	r31, Z+3	; 0x03
    10b0:	e0 2d       	mov	r30, r0
    10b2:	8f ef       	ldi	r24, 0xFF	; 255
    10b4:	e2 38       	cpi	r30, 0x82	; 130
    10b6:	f8 07       	cpc	r31, r24
    10b8:	0c f0       	brlt	.+2      	; 0x10bc <__pack_f+0x4e>
    10ba:	5a c0       	rjmp	.+180    	; 0x1170 <__pack_f+0x102>
    10bc:	c2 e8       	ldi	r28, 0x82	; 130
    10be:	df ef       	ldi	r29, 0xFF	; 255
    10c0:	ce 1b       	sub	r28, r30
    10c2:	df 0b       	sbc	r29, r31
    10c4:	ca 31       	cpi	r28, 0x1A	; 26
    10c6:	d1 05       	cpc	r29, r1
    10c8:	6c f5       	brge	.+90     	; 0x1124 <__pack_f+0xb6>
    10ca:	79 01       	movw	r14, r18
    10cc:	8a 01       	movw	r16, r20
    10ce:	0c 2e       	mov	r0, r28
    10d0:	04 c0       	rjmp	.+8      	; 0x10da <__pack_f+0x6c>
    10d2:	16 95       	lsr	r17
    10d4:	07 95       	ror	r16
    10d6:	f7 94       	ror	r15
    10d8:	e7 94       	ror	r14
    10da:	0a 94       	dec	r0
    10dc:	d2 f7       	brpl	.-12     	; 0x10d2 <__pack_f+0x64>
    10de:	81 e0       	ldi	r24, 0x01	; 1
    10e0:	90 e0       	ldi	r25, 0x00	; 0
    10e2:	a0 e0       	ldi	r26, 0x00	; 0
    10e4:	b0 e0       	ldi	r27, 0x00	; 0
    10e6:	0c 2e       	mov	r0, r28
    10e8:	04 c0       	rjmp	.+8      	; 0x10f2 <__pack_f+0x84>
    10ea:	88 0f       	add	r24, r24
    10ec:	99 1f       	adc	r25, r25
    10ee:	aa 1f       	adc	r26, r26
    10f0:	bb 1f       	adc	r27, r27
    10f2:	0a 94       	dec	r0
    10f4:	d2 f7       	brpl	.-12     	; 0x10ea <__pack_f+0x7c>
    10f6:	01 97       	sbiw	r24, 0x01	; 1
    10f8:	a1 09       	sbc	r26, r1
    10fa:	b1 09       	sbc	r27, r1
    10fc:	82 23       	and	r24, r18
    10fe:	93 23       	and	r25, r19
    1100:	a4 23       	and	r26, r20
    1102:	b5 23       	and	r27, r21
    1104:	21 e0       	ldi	r18, 0x01	; 1
    1106:	30 e0       	ldi	r19, 0x00	; 0
    1108:	40 e0       	ldi	r20, 0x00	; 0
    110a:	50 e0       	ldi	r21, 0x00	; 0
    110c:	00 97       	sbiw	r24, 0x00	; 0
    110e:	a1 05       	cpc	r26, r1
    1110:	b1 05       	cpc	r27, r1
    1112:	19 f4       	brne	.+6      	; 0x111a <__pack_f+0xac>
    1114:	20 e0       	ldi	r18, 0x00	; 0
    1116:	30 e0       	ldi	r19, 0x00	; 0
    1118:	a9 01       	movw	r20, r18
    111a:	2e 29       	or	r18, r14
    111c:	3f 29       	or	r19, r15
    111e:	40 2b       	or	r20, r16
    1120:	51 2b       	or	r21, r17
    1122:	03 c0       	rjmp	.+6      	; 0x112a <__pack_f+0xbc>
    1124:	20 e0       	ldi	r18, 0x00	; 0
    1126:	30 e0       	ldi	r19, 0x00	; 0
    1128:	a9 01       	movw	r20, r18
    112a:	da 01       	movw	r26, r20
    112c:	c9 01       	movw	r24, r18
    112e:	8f 77       	andi	r24, 0x7F	; 127
    1130:	90 70       	andi	r25, 0x00	; 0
    1132:	a0 70       	andi	r26, 0x00	; 0
    1134:	b0 70       	andi	r27, 0x00	; 0
    1136:	80 34       	cpi	r24, 0x40	; 64
    1138:	91 05       	cpc	r25, r1
    113a:	a1 05       	cpc	r26, r1
    113c:	b1 05       	cpc	r27, r1
    113e:	39 f4       	brne	.+14     	; 0x114e <__pack_f+0xe0>
    1140:	27 ff       	sbrs	r18, 7
    1142:	09 c0       	rjmp	.+18     	; 0x1156 <__pack_f+0xe8>
    1144:	20 5c       	subi	r18, 0xC0	; 192
    1146:	3f 4f       	sbci	r19, 0xFF	; 255
    1148:	4f 4f       	sbci	r20, 0xFF	; 255
    114a:	5f 4f       	sbci	r21, 0xFF	; 255
    114c:	04 c0       	rjmp	.+8      	; 0x1156 <__pack_f+0xe8>
    114e:	21 5c       	subi	r18, 0xC1	; 193
    1150:	3f 4f       	sbci	r19, 0xFF	; 255
    1152:	4f 4f       	sbci	r20, 0xFF	; 255
    1154:	5f 4f       	sbci	r21, 0xFF	; 255
    1156:	e1 e0       	ldi	r30, 0x01	; 1
    1158:	f0 e0       	ldi	r31, 0x00	; 0
    115a:	20 30       	cpi	r18, 0x00	; 0
    115c:	80 e0       	ldi	r24, 0x00	; 0
    115e:	38 07       	cpc	r19, r24
    1160:	80 e0       	ldi	r24, 0x00	; 0
    1162:	48 07       	cpc	r20, r24
    1164:	80 e4       	ldi	r24, 0x40	; 64
    1166:	58 07       	cpc	r21, r24
    1168:	28 f5       	brcc	.+74     	; 0x11b4 <__pack_f+0x146>
    116a:	e0 e0       	ldi	r30, 0x00	; 0
    116c:	f0 e0       	ldi	r31, 0x00	; 0
    116e:	22 c0       	rjmp	.+68     	; 0x11b4 <__pack_f+0x146>
    1170:	e0 38       	cpi	r30, 0x80	; 128
    1172:	f1 05       	cpc	r31, r1
    1174:	6c f5       	brge	.+90     	; 0x11d0 <__pack_f+0x162>
    1176:	e1 58       	subi	r30, 0x81	; 129
    1178:	ff 4f       	sbci	r31, 0xFF	; 255
    117a:	da 01       	movw	r26, r20
    117c:	c9 01       	movw	r24, r18
    117e:	8f 77       	andi	r24, 0x7F	; 127
    1180:	90 70       	andi	r25, 0x00	; 0
    1182:	a0 70       	andi	r26, 0x00	; 0
    1184:	b0 70       	andi	r27, 0x00	; 0
    1186:	80 34       	cpi	r24, 0x40	; 64
    1188:	91 05       	cpc	r25, r1
    118a:	a1 05       	cpc	r26, r1
    118c:	b1 05       	cpc	r27, r1
    118e:	39 f4       	brne	.+14     	; 0x119e <__pack_f+0x130>
    1190:	27 ff       	sbrs	r18, 7
    1192:	09 c0       	rjmp	.+18     	; 0x11a6 <__pack_f+0x138>
    1194:	20 5c       	subi	r18, 0xC0	; 192
    1196:	3f 4f       	sbci	r19, 0xFF	; 255
    1198:	4f 4f       	sbci	r20, 0xFF	; 255
    119a:	5f 4f       	sbci	r21, 0xFF	; 255
    119c:	04 c0       	rjmp	.+8      	; 0x11a6 <__pack_f+0x138>
    119e:	21 5c       	subi	r18, 0xC1	; 193
    11a0:	3f 4f       	sbci	r19, 0xFF	; 255
    11a2:	4f 4f       	sbci	r20, 0xFF	; 255
    11a4:	5f 4f       	sbci	r21, 0xFF	; 255
    11a6:	57 ff       	sbrs	r21, 7
    11a8:	05 c0       	rjmp	.+10     	; 0x11b4 <__pack_f+0x146>
    11aa:	56 95       	lsr	r21
    11ac:	47 95       	ror	r20
    11ae:	37 95       	ror	r19
    11b0:	27 95       	ror	r18
    11b2:	31 96       	adiw	r30, 0x01	; 1
    11b4:	87 e0       	ldi	r24, 0x07	; 7
    11b6:	56 95       	lsr	r21
    11b8:	47 95       	ror	r20
    11ba:	37 95       	ror	r19
    11bc:	27 95       	ror	r18
    11be:	8a 95       	dec	r24
    11c0:	d1 f7       	brne	.-12     	; 0x11b6 <__pack_f+0x148>
    11c2:	0b c0       	rjmp	.+22     	; 0x11da <__pack_f+0x16c>
    11c4:	e0 e0       	ldi	r30, 0x00	; 0
    11c6:	f0 e0       	ldi	r31, 0x00	; 0
    11c8:	05 c0       	rjmp	.+10     	; 0x11d4 <__pack_f+0x166>
    11ca:	e0 e0       	ldi	r30, 0x00	; 0
    11cc:	f0 e0       	ldi	r31, 0x00	; 0
    11ce:	05 c0       	rjmp	.+10     	; 0x11da <__pack_f+0x16c>
    11d0:	ef ef       	ldi	r30, 0xFF	; 255
    11d2:	f0 e0       	ldi	r31, 0x00	; 0
    11d4:	20 e0       	ldi	r18, 0x00	; 0
    11d6:	30 e0       	ldi	r19, 0x00	; 0
    11d8:	a9 01       	movw	r20, r18
    11da:	8e 2f       	mov	r24, r30
    11dc:	87 95       	ror	r24
    11de:	88 27       	eor	r24, r24
    11e0:	87 95       	ror	r24
    11e2:	94 2f       	mov	r25, r20
    11e4:	9f 77       	andi	r25, 0x7F	; 127
    11e6:	67 95       	ror	r22
    11e8:	66 27       	eor	r22, r22
    11ea:	67 95       	ror	r22
    11ec:	e6 95       	lsr	r30
    11ee:	e2 2e       	mov	r14, r18
    11f0:	a9 2f       	mov	r26, r25
    11f2:	a8 2b       	or	r26, r24
    11f4:	fe 2f       	mov	r31, r30
    11f6:	f6 2b       	or	r31, r22
    11f8:	62 2f       	mov	r22, r18
    11fa:	73 2f       	mov	r23, r19
    11fc:	8a 2f       	mov	r24, r26
    11fe:	9f 2f       	mov	r25, r31
    1200:	cd b7       	in	r28, 0x3d	; 61
    1202:	de b7       	in	r29, 0x3e	; 62
    1204:	e6 e0       	ldi	r30, 0x06	; 6
    1206:	ea c0       	rjmp	.+468    	; 0x13dc <__epilogue_restores__+0x18>

00001208 <__unpack_f>:
    1208:	dc 01       	movw	r26, r24
    120a:	fb 01       	movw	r30, r22
    120c:	2c 91       	ld	r18, X
    120e:	11 96       	adiw	r26, 0x01	; 1
    1210:	3c 91       	ld	r19, X
    1212:	11 97       	sbiw	r26, 0x01	; 1
    1214:	12 96       	adiw	r26, 0x02	; 2
    1216:	8c 91       	ld	r24, X
    1218:	12 97       	sbiw	r26, 0x02	; 2
    121a:	48 2f       	mov	r20, r24
    121c:	4f 77       	andi	r20, 0x7F	; 127
    121e:	50 e0       	ldi	r21, 0x00	; 0
    1220:	98 2f       	mov	r25, r24
    1222:	99 1f       	adc	r25, r25
    1224:	99 27       	eor	r25, r25
    1226:	99 1f       	adc	r25, r25
    1228:	13 96       	adiw	r26, 0x03	; 3
    122a:	6c 91       	ld	r22, X
    122c:	13 97       	sbiw	r26, 0x03	; 3
    122e:	86 2f       	mov	r24, r22
    1230:	88 0f       	add	r24, r24
    1232:	89 2b       	or	r24, r25
    1234:	90 e0       	ldi	r25, 0x00	; 0
    1236:	66 1f       	adc	r22, r22
    1238:	66 27       	eor	r22, r22
    123a:	66 1f       	adc	r22, r22
    123c:	61 83       	std	Z+1, r22	; 0x01
    123e:	00 97       	sbiw	r24, 0x00	; 0
    1240:	39 f5       	brne	.+78     	; 0x1290 <__unpack_f+0x88>
    1242:	21 15       	cp	r18, r1
    1244:	31 05       	cpc	r19, r1
    1246:	41 05       	cpc	r20, r1
    1248:	51 05       	cpc	r21, r1
    124a:	11 f4       	brne	.+4      	; 0x1250 <__unpack_f+0x48>
    124c:	82 e0       	ldi	r24, 0x02	; 2
    124e:	29 c0       	rjmp	.+82     	; 0x12a2 <__unpack_f+0x9a>
    1250:	82 e8       	ldi	r24, 0x82	; 130
    1252:	9f ef       	ldi	r25, 0xFF	; 255
    1254:	93 83       	std	Z+3, r25	; 0x03
    1256:	82 83       	std	Z+2, r24	; 0x02
    1258:	67 e0       	ldi	r22, 0x07	; 7
    125a:	22 0f       	add	r18, r18
    125c:	33 1f       	adc	r19, r19
    125e:	44 1f       	adc	r20, r20
    1260:	55 1f       	adc	r21, r21
    1262:	6a 95       	dec	r22
    1264:	d1 f7       	brne	.-12     	; 0x125a <__unpack_f+0x52>
    1266:	83 e0       	ldi	r24, 0x03	; 3
    1268:	80 83       	st	Z, r24
    126a:	09 c0       	rjmp	.+18     	; 0x127e <__unpack_f+0x76>
    126c:	22 0f       	add	r18, r18
    126e:	33 1f       	adc	r19, r19
    1270:	44 1f       	adc	r20, r20
    1272:	55 1f       	adc	r21, r21
    1274:	82 81       	ldd	r24, Z+2	; 0x02
    1276:	93 81       	ldd	r25, Z+3	; 0x03
    1278:	01 97       	sbiw	r24, 0x01	; 1
    127a:	93 83       	std	Z+3, r25	; 0x03
    127c:	82 83       	std	Z+2, r24	; 0x02
    127e:	20 30       	cpi	r18, 0x00	; 0
    1280:	80 e0       	ldi	r24, 0x00	; 0
    1282:	38 07       	cpc	r19, r24
    1284:	80 e0       	ldi	r24, 0x00	; 0
    1286:	48 07       	cpc	r20, r24
    1288:	80 e4       	ldi	r24, 0x40	; 64
    128a:	58 07       	cpc	r21, r24
    128c:	78 f3       	brcs	.-34     	; 0x126c <__unpack_f+0x64>
    128e:	20 c0       	rjmp	.+64     	; 0x12d0 <__unpack_f+0xc8>
    1290:	8f 3f       	cpi	r24, 0xFF	; 255
    1292:	91 05       	cpc	r25, r1
    1294:	79 f4       	brne	.+30     	; 0x12b4 <__unpack_f+0xac>
    1296:	21 15       	cp	r18, r1
    1298:	31 05       	cpc	r19, r1
    129a:	41 05       	cpc	r20, r1
    129c:	51 05       	cpc	r21, r1
    129e:	19 f4       	brne	.+6      	; 0x12a6 <__unpack_f+0x9e>
    12a0:	84 e0       	ldi	r24, 0x04	; 4
    12a2:	80 83       	st	Z, r24
    12a4:	08 95       	ret
    12a6:	44 ff       	sbrs	r20, 4
    12a8:	03 c0       	rjmp	.+6      	; 0x12b0 <__unpack_f+0xa8>
    12aa:	81 e0       	ldi	r24, 0x01	; 1
    12ac:	80 83       	st	Z, r24
    12ae:	10 c0       	rjmp	.+32     	; 0x12d0 <__unpack_f+0xc8>
    12b0:	10 82       	st	Z, r1
    12b2:	0e c0       	rjmp	.+28     	; 0x12d0 <__unpack_f+0xc8>
    12b4:	8f 57       	subi	r24, 0x7F	; 127
    12b6:	90 40       	sbci	r25, 0x00	; 0
    12b8:	93 83       	std	Z+3, r25	; 0x03
    12ba:	82 83       	std	Z+2, r24	; 0x02
    12bc:	83 e0       	ldi	r24, 0x03	; 3
    12be:	80 83       	st	Z, r24
    12c0:	87 e0       	ldi	r24, 0x07	; 7
    12c2:	22 0f       	add	r18, r18
    12c4:	33 1f       	adc	r19, r19
    12c6:	44 1f       	adc	r20, r20
    12c8:	55 1f       	adc	r21, r21
    12ca:	8a 95       	dec	r24
    12cc:	d1 f7       	brne	.-12     	; 0x12c2 <__unpack_f+0xba>
    12ce:	50 64       	ori	r21, 0x40	; 64
    12d0:	24 83       	std	Z+4, r18	; 0x04
    12d2:	35 83       	std	Z+5, r19	; 0x05
    12d4:	46 83       	std	Z+6, r20	; 0x06
    12d6:	57 83       	std	Z+7, r21	; 0x07
    12d8:	08 95       	ret

000012da <__fpcmp_parts_f>:
    12da:	fc 01       	movw	r30, r24
    12dc:	db 01       	movw	r26, r22
    12de:	90 81       	ld	r25, Z
    12e0:	92 30       	cpi	r25, 0x02	; 2
    12e2:	08 f4       	brcc	.+2      	; 0x12e6 <__fpcmp_parts_f+0xc>
    12e4:	49 c0       	rjmp	.+146    	; 0x1378 <__fpcmp_parts_f+0x9e>
    12e6:	8c 91       	ld	r24, X
    12e8:	82 30       	cpi	r24, 0x02	; 2
    12ea:	08 f4       	brcc	.+2      	; 0x12ee <__fpcmp_parts_f+0x14>
    12ec:	45 c0       	rjmp	.+138    	; 0x1378 <__fpcmp_parts_f+0x9e>
    12ee:	94 30       	cpi	r25, 0x04	; 4
    12f0:	51 f4       	brne	.+20     	; 0x1306 <__fpcmp_parts_f+0x2c>
    12f2:	61 81       	ldd	r22, Z+1	; 0x01
    12f4:	84 30       	cpi	r24, 0x04	; 4
    12f6:	b1 f5       	brne	.+108    	; 0x1364 <__fpcmp_parts_f+0x8a>
    12f8:	11 96       	adiw	r26, 0x01	; 1
    12fa:	2c 91       	ld	r18, X
    12fc:	11 97       	sbiw	r26, 0x01	; 1
    12fe:	30 e0       	ldi	r19, 0x00	; 0
    1300:	26 1b       	sub	r18, r22
    1302:	31 09       	sbc	r19, r1
    1304:	41 c0       	rjmp	.+130    	; 0x1388 <__fpcmp_parts_f+0xae>
    1306:	84 30       	cpi	r24, 0x04	; 4
    1308:	21 f0       	breq	.+8      	; 0x1312 <__fpcmp_parts_f+0x38>
    130a:	92 30       	cpi	r25, 0x02	; 2
    130c:	41 f4       	brne	.+16     	; 0x131e <__fpcmp_parts_f+0x44>
    130e:	82 30       	cpi	r24, 0x02	; 2
    1310:	b1 f1       	breq	.+108    	; 0x137e <__fpcmp_parts_f+0xa4>
    1312:	11 96       	adiw	r26, 0x01	; 1
    1314:	8c 91       	ld	r24, X
    1316:	11 97       	sbiw	r26, 0x01	; 1
    1318:	88 23       	and	r24, r24
    131a:	a1 f1       	breq	.+104    	; 0x1384 <__fpcmp_parts_f+0xaa>
    131c:	2d c0       	rjmp	.+90     	; 0x1378 <__fpcmp_parts_f+0x9e>
    131e:	61 81       	ldd	r22, Z+1	; 0x01
    1320:	82 30       	cpi	r24, 0x02	; 2
    1322:	01 f1       	breq	.+64     	; 0x1364 <__fpcmp_parts_f+0x8a>
    1324:	11 96       	adiw	r26, 0x01	; 1
    1326:	8c 91       	ld	r24, X
    1328:	11 97       	sbiw	r26, 0x01	; 1
    132a:	68 17       	cp	r22, r24
    132c:	d9 f4       	brne	.+54     	; 0x1364 <__fpcmp_parts_f+0x8a>
    132e:	22 81       	ldd	r18, Z+2	; 0x02
    1330:	33 81       	ldd	r19, Z+3	; 0x03
    1332:	12 96       	adiw	r26, 0x02	; 2
    1334:	8d 91       	ld	r24, X+
    1336:	9c 91       	ld	r25, X
    1338:	13 97       	sbiw	r26, 0x03	; 3
    133a:	82 17       	cp	r24, r18
    133c:	93 07       	cpc	r25, r19
    133e:	94 f0       	brlt	.+36     	; 0x1364 <__fpcmp_parts_f+0x8a>
    1340:	28 17       	cp	r18, r24
    1342:	39 07       	cpc	r19, r25
    1344:	bc f0       	brlt	.+46     	; 0x1374 <__fpcmp_parts_f+0x9a>
    1346:	24 81       	ldd	r18, Z+4	; 0x04
    1348:	35 81       	ldd	r19, Z+5	; 0x05
    134a:	46 81       	ldd	r20, Z+6	; 0x06
    134c:	57 81       	ldd	r21, Z+7	; 0x07
    134e:	14 96       	adiw	r26, 0x04	; 4
    1350:	8d 91       	ld	r24, X+
    1352:	9d 91       	ld	r25, X+
    1354:	0d 90       	ld	r0, X+
    1356:	bc 91       	ld	r27, X
    1358:	a0 2d       	mov	r26, r0
    135a:	82 17       	cp	r24, r18
    135c:	93 07       	cpc	r25, r19
    135e:	a4 07       	cpc	r26, r20
    1360:	b5 07       	cpc	r27, r21
    1362:	18 f4       	brcc	.+6      	; 0x136a <__fpcmp_parts_f+0x90>
    1364:	66 23       	and	r22, r22
    1366:	41 f0       	breq	.+16     	; 0x1378 <__fpcmp_parts_f+0x9e>
    1368:	0d c0       	rjmp	.+26     	; 0x1384 <__fpcmp_parts_f+0xaa>
    136a:	28 17       	cp	r18, r24
    136c:	39 07       	cpc	r19, r25
    136e:	4a 07       	cpc	r20, r26
    1370:	5b 07       	cpc	r21, r27
    1372:	28 f4       	brcc	.+10     	; 0x137e <__fpcmp_parts_f+0xa4>
    1374:	66 23       	and	r22, r22
    1376:	31 f0       	breq	.+12     	; 0x1384 <__fpcmp_parts_f+0xaa>
    1378:	21 e0       	ldi	r18, 0x01	; 1
    137a:	30 e0       	ldi	r19, 0x00	; 0
    137c:	05 c0       	rjmp	.+10     	; 0x1388 <__fpcmp_parts_f+0xae>
    137e:	20 e0       	ldi	r18, 0x00	; 0
    1380:	30 e0       	ldi	r19, 0x00	; 0
    1382:	02 c0       	rjmp	.+4      	; 0x1388 <__fpcmp_parts_f+0xae>
    1384:	2f ef       	ldi	r18, 0xFF	; 255
    1386:	3f ef       	ldi	r19, 0xFF	; 255
    1388:	c9 01       	movw	r24, r18
    138a:	08 95       	ret

0000138c <__prologue_saves__>:
    138c:	2f 92       	push	r2
    138e:	3f 92       	push	r3
    1390:	4f 92       	push	r4
    1392:	5f 92       	push	r5
    1394:	6f 92       	push	r6
    1396:	7f 92       	push	r7
    1398:	8f 92       	push	r8
    139a:	9f 92       	push	r9
    139c:	af 92       	push	r10
    139e:	bf 92       	push	r11
    13a0:	cf 92       	push	r12
    13a2:	df 92       	push	r13
    13a4:	ef 92       	push	r14
    13a6:	ff 92       	push	r15
    13a8:	0f 93       	push	r16
    13aa:	1f 93       	push	r17
    13ac:	cf 93       	push	r28
    13ae:	df 93       	push	r29
    13b0:	cd b7       	in	r28, 0x3d	; 61
    13b2:	de b7       	in	r29, 0x3e	; 62
    13b4:	ca 1b       	sub	r28, r26
    13b6:	db 0b       	sbc	r29, r27
    13b8:	0f b6       	in	r0, 0x3f	; 63
    13ba:	f8 94       	cli
    13bc:	de bf       	out	0x3e, r29	; 62
    13be:	0f be       	out	0x3f, r0	; 63
    13c0:	cd bf       	out	0x3d, r28	; 61
    13c2:	09 94       	ijmp

000013c4 <__epilogue_restores__>:
    13c4:	2a 88       	ldd	r2, Y+18	; 0x12
    13c6:	39 88       	ldd	r3, Y+17	; 0x11
    13c8:	48 88       	ldd	r4, Y+16	; 0x10
    13ca:	5f 84       	ldd	r5, Y+15	; 0x0f
    13cc:	6e 84       	ldd	r6, Y+14	; 0x0e
    13ce:	7d 84       	ldd	r7, Y+13	; 0x0d
    13d0:	8c 84       	ldd	r8, Y+12	; 0x0c
    13d2:	9b 84       	ldd	r9, Y+11	; 0x0b
    13d4:	aa 84       	ldd	r10, Y+10	; 0x0a
    13d6:	b9 84       	ldd	r11, Y+9	; 0x09
    13d8:	c8 84       	ldd	r12, Y+8	; 0x08
    13da:	df 80       	ldd	r13, Y+7	; 0x07
    13dc:	ee 80       	ldd	r14, Y+6	; 0x06
    13de:	fd 80       	ldd	r15, Y+5	; 0x05
    13e0:	0c 81       	ldd	r16, Y+4	; 0x04
    13e2:	1b 81       	ldd	r17, Y+3	; 0x03
    13e4:	aa 81       	ldd	r26, Y+2	; 0x02
    13e6:	b9 81       	ldd	r27, Y+1	; 0x01
    13e8:	ce 0f       	add	r28, r30
    13ea:	d1 1d       	adc	r29, r1
    13ec:	0f b6       	in	r0, 0x3f	; 63
    13ee:	f8 94       	cli
    13f0:	de bf       	out	0x3e, r29	; 62
    13f2:	0f be       	out	0x3f, r0	; 63
    13f4:	cd bf       	out	0x3d, r28	; 61
    13f6:	ed 01       	movw	r28, r26
    13f8:	08 95       	ret

000013fa <dtostrf>:
    13fa:	ef 92       	push	r14
    13fc:	ff 92       	push	r15
    13fe:	0f 93       	push	r16
    1400:	1f 93       	push	r17
    1402:	32 2f       	mov	r19, r18
    1404:	f0 2e       	mov	r15, r16
    1406:	47 ff       	sbrs	r20, 7
    1408:	02 c0       	rjmp	.+4      	; 0x140e <dtostrf+0x14>
    140a:	a4 e1       	ldi	r26, 0x14	; 20
    140c:	01 c0       	rjmp	.+2      	; 0x1410 <dtostrf+0x16>
    140e:	a4 e0       	ldi	r26, 0x04	; 4
    1410:	e4 2f       	mov	r30, r20
    1412:	ff 27       	eor	r31, r31
    1414:	e7 fd       	sbrc	r30, 7
    1416:	f0 95       	com	r31
    1418:	f7 ff       	sbrs	r31, 7
    141a:	03 c0       	rjmp	.+6      	; 0x1422 <dtostrf+0x28>
    141c:	f0 95       	com	r31
    141e:	e1 95       	neg	r30
    1420:	ff 4f       	sbci	r31, 0xFF	; 255
    1422:	4f 2d       	mov	r20, r15
    1424:	51 2f       	mov	r21, r17
    1426:	2e 2f       	mov	r18, r30
    1428:	03 2f       	mov	r16, r19
    142a:	ea 2e       	mov	r14, r26
    142c:	07 d0       	rcall	.+14     	; 0x143c <dtoa_prf>
    142e:	8f 2d       	mov	r24, r15
    1430:	91 2f       	mov	r25, r17
    1432:	1f 91       	pop	r17
    1434:	0f 91       	pop	r16
    1436:	ff 90       	pop	r15
    1438:	ef 90       	pop	r14
    143a:	08 95       	ret

0000143c <dtoa_prf>:
    143c:	a9 e0       	ldi	r26, 0x09	; 9
    143e:	b0 e0       	ldi	r27, 0x00	; 0
    1440:	e3 e2       	ldi	r30, 0x23	; 35
    1442:	fa e0       	ldi	r31, 0x0A	; 10
    1444:	ab cf       	rjmp	.-170    	; 0x139c <__prologue_saves__+0x10>
    1446:	6a 01       	movw	r12, r20
    1448:	f2 2e       	mov	r15, r18
    144a:	10 2f       	mov	r17, r16
    144c:	0c 33       	cpi	r16, 0x3C	; 60
    144e:	18 f4       	brcc	.+6      	; 0x1456 <dtoa_prf+0x1a>
    1450:	b0 2e       	mov	r11, r16
    1452:	b3 94       	inc	r11
    1454:	02 c0       	rjmp	.+4      	; 0x145a <dtoa_prf+0x1e>
    1456:	ec e3       	ldi	r30, 0x3C	; 60
    1458:	be 2e       	mov	r11, r30
    145a:	ae 01       	movw	r20, r28
    145c:	4f 5f       	subi	r20, 0xFF	; 255
    145e:	5f 4f       	sbci	r21, 0xFF	; 255
    1460:	27 e0       	ldi	r18, 0x07	; 7
    1462:	0b 2d       	mov	r16, r11
    1464:	3f d1       	rcall	.+638    	; 0x16e4 <__ftoa_engine>
    1466:	29 81       	ldd	r18, Y+1	; 0x01
    1468:	30 e0       	ldi	r19, 0x00	; 0
    146a:	a9 01       	movw	r20, r18
    146c:	49 70       	andi	r20, 0x09	; 9
    146e:	50 70       	andi	r21, 0x00	; 0
    1470:	41 30       	cpi	r20, 0x01	; 1
    1472:	51 05       	cpc	r21, r1
    1474:	31 f0       	breq	.+12     	; 0x1482 <dtoa_prf+0x46>
    1476:	e1 fc       	sbrc	r14, 1
    1478:	06 c0       	rjmp	.+12     	; 0x1486 <dtoa_prf+0x4a>
    147a:	e0 fe       	sbrs	r14, 0
    147c:	06 c0       	rjmp	.+12     	; 0x148a <dtoa_prf+0x4e>
    147e:	e0 e2       	ldi	r30, 0x20	; 32
    1480:	05 c0       	rjmp	.+10     	; 0x148c <dtoa_prf+0x50>
    1482:	ed e2       	ldi	r30, 0x2D	; 45
    1484:	03 c0       	rjmp	.+6      	; 0x148c <dtoa_prf+0x50>
    1486:	eb e2       	ldi	r30, 0x2B	; 43
    1488:	01 c0       	rjmp	.+2      	; 0x148c <dtoa_prf+0x50>
    148a:	e0 e0       	ldi	r30, 0x00	; 0
    148c:	23 ff       	sbrs	r18, 3
    148e:	37 c0       	rjmp	.+110    	; 0x14fe <dtoa_prf+0xc2>
    1490:	ee 23       	and	r30, r30
    1492:	11 f0       	breq	.+4      	; 0x1498 <dtoa_prf+0x5c>
    1494:	84 e0       	ldi	r24, 0x04	; 4
    1496:	01 c0       	rjmp	.+2      	; 0x149a <dtoa_prf+0x5e>
    1498:	83 e0       	ldi	r24, 0x03	; 3
    149a:	8f 15       	cp	r24, r15
    149c:	18 f4       	brcc	.+6      	; 0x14a4 <dtoa_prf+0x68>
    149e:	f8 1a       	sub	r15, r24
    14a0:	8f 2d       	mov	r24, r15
    14a2:	01 c0       	rjmp	.+2      	; 0x14a6 <dtoa_prf+0x6a>
    14a4:	80 e0       	ldi	r24, 0x00	; 0
    14a6:	e4 fc       	sbrc	r14, 4
    14a8:	0b c0       	rjmp	.+22     	; 0x14c0 <dtoa_prf+0x84>
    14aa:	98 2f       	mov	r25, r24
    14ac:	d6 01       	movw	r26, r12
    14ae:	20 e2       	ldi	r18, 0x20	; 32
    14b0:	02 c0       	rjmp	.+4      	; 0x14b6 <dtoa_prf+0x7a>
    14b2:	2d 93       	st	X+, r18
    14b4:	91 50       	subi	r25, 0x01	; 1
    14b6:	99 23       	and	r25, r25
    14b8:	e1 f7       	brne	.-8      	; 0x14b2 <dtoa_prf+0x76>
    14ba:	c8 0e       	add	r12, r24
    14bc:	d1 1c       	adc	r13, r1
    14be:	80 e0       	ldi	r24, 0x00	; 0
    14c0:	ee 23       	and	r30, r30
    14c2:	19 f0       	breq	.+6      	; 0x14ca <dtoa_prf+0x8e>
    14c4:	d6 01       	movw	r26, r12
    14c6:	ed 93       	st	X+, r30
    14c8:	6d 01       	movw	r12, r26
    14ca:	f6 01       	movw	r30, r12
    14cc:	31 96       	adiw	r30, 0x01	; 1
    14ce:	e2 fe       	sbrs	r14, 2
    14d0:	05 c0       	rjmp	.+10     	; 0x14dc <dtoa_prf+0xa0>
    14d2:	9e e4       	ldi	r25, 0x4E	; 78
    14d4:	d6 01       	movw	r26, r12
    14d6:	9c 93       	st	X, r25
    14d8:	21 e4       	ldi	r18, 0x41	; 65
    14da:	04 c0       	rjmp	.+8      	; 0x14e4 <dtoa_prf+0xa8>
    14dc:	9e e6       	ldi	r25, 0x6E	; 110
    14de:	d6 01       	movw	r26, r12
    14e0:	9c 93       	st	X, r25
    14e2:	21 e6       	ldi	r18, 0x61	; 97
    14e4:	11 96       	adiw	r26, 0x01	; 1
    14e6:	2c 93       	st	X, r18
    14e8:	91 83       	std	Z+1, r25	; 0x01
    14ea:	32 96       	adiw	r30, 0x02	; 2
    14ec:	98 2f       	mov	r25, r24
    14ee:	df 01       	movw	r26, r30
    14f0:	20 e2       	ldi	r18, 0x20	; 32
    14f2:	02 c0       	rjmp	.+4      	; 0x14f8 <dtoa_prf+0xbc>
    14f4:	2d 93       	st	X+, r18
    14f6:	91 50       	subi	r25, 0x01	; 1
    14f8:	99 23       	and	r25, r25
    14fa:	e1 f7       	brne	.-8      	; 0x14f4 <dtoa_prf+0xb8>
    14fc:	3d c0       	rjmp	.+122    	; 0x1578 <dtoa_prf+0x13c>
    14fe:	22 ff       	sbrs	r18, 2
    1500:	41 c0       	rjmp	.+130    	; 0x1584 <dtoa_prf+0x148>
    1502:	ee 23       	and	r30, r30
    1504:	11 f0       	breq	.+4      	; 0x150a <dtoa_prf+0xce>
    1506:	84 e0       	ldi	r24, 0x04	; 4
    1508:	01 c0       	rjmp	.+2      	; 0x150c <dtoa_prf+0xd0>
    150a:	83 e0       	ldi	r24, 0x03	; 3
    150c:	8f 15       	cp	r24, r15
    150e:	18 f4       	brcc	.+6      	; 0x1516 <dtoa_prf+0xda>
    1510:	f8 1a       	sub	r15, r24
    1512:	8f 2d       	mov	r24, r15
    1514:	01 c0       	rjmp	.+2      	; 0x1518 <dtoa_prf+0xdc>
    1516:	80 e0       	ldi	r24, 0x00	; 0
    1518:	e4 fc       	sbrc	r14, 4
    151a:	0b c0       	rjmp	.+22     	; 0x1532 <dtoa_prf+0xf6>
    151c:	98 2f       	mov	r25, r24
    151e:	d6 01       	movw	r26, r12
    1520:	20 e2       	ldi	r18, 0x20	; 32
    1522:	02 c0       	rjmp	.+4      	; 0x1528 <dtoa_prf+0xec>
    1524:	2d 93       	st	X+, r18
    1526:	91 50       	subi	r25, 0x01	; 1
    1528:	99 23       	and	r25, r25
    152a:	e1 f7       	brne	.-8      	; 0x1524 <dtoa_prf+0xe8>
    152c:	c8 0e       	add	r12, r24
    152e:	d1 1c       	adc	r13, r1
    1530:	80 e0       	ldi	r24, 0x00	; 0
    1532:	ee 23       	and	r30, r30
    1534:	19 f0       	breq	.+6      	; 0x153c <dtoa_prf+0x100>
    1536:	d6 01       	movw	r26, r12
    1538:	ed 93       	st	X+, r30
    153a:	6d 01       	movw	r12, r26
    153c:	f6 01       	movw	r30, r12
    153e:	31 96       	adiw	r30, 0x01	; 1
    1540:	e2 fe       	sbrs	r14, 2
    1542:	09 c0       	rjmp	.+18     	; 0x1556 <dtoa_prf+0x11a>
    1544:	99 e4       	ldi	r25, 0x49	; 73
    1546:	d6 01       	movw	r26, r12
    1548:	9c 93       	st	X, r25
    154a:	9e e4       	ldi	r25, 0x4E	; 78
    154c:	11 96       	adiw	r26, 0x01	; 1
    154e:	9c 93       	st	X, r25
    1550:	11 97       	sbiw	r26, 0x01	; 1
    1552:	96 e4       	ldi	r25, 0x46	; 70
    1554:	07 c0       	rjmp	.+14     	; 0x1564 <dtoa_prf+0x128>
    1556:	99 e6       	ldi	r25, 0x69	; 105
    1558:	d6 01       	movw	r26, r12
    155a:	9c 93       	st	X, r25
    155c:	9e e6       	ldi	r25, 0x6E	; 110
    155e:	11 96       	adiw	r26, 0x01	; 1
    1560:	9c 93       	st	X, r25
    1562:	96 e6       	ldi	r25, 0x66	; 102
    1564:	91 83       	std	Z+1, r25	; 0x01
    1566:	32 96       	adiw	r30, 0x02	; 2
    1568:	98 2f       	mov	r25, r24
    156a:	df 01       	movw	r26, r30
    156c:	20 e2       	ldi	r18, 0x20	; 32
    156e:	02 c0       	rjmp	.+4      	; 0x1574 <dtoa_prf+0x138>
    1570:	2d 93       	st	X+, r18
    1572:	91 50       	subi	r25, 0x01	; 1
    1574:	99 23       	and	r25, r25
    1576:	e1 f7       	brne	.-8      	; 0x1570 <dtoa_prf+0x134>
    1578:	e8 0f       	add	r30, r24
    157a:	f1 1d       	adc	r31, r1
    157c:	10 82       	st	Z, r1
    157e:	2e ef       	ldi	r18, 0xFE	; 254
    1580:	3f ef       	ldi	r19, 0xFF	; 255
    1582:	ac c0       	rjmp	.+344    	; 0x16dc <dtoa_prf+0x2a0>
    1584:	41 e0       	ldi	r20, 0x01	; 1
    1586:	50 e0       	ldi	r21, 0x00	; 0
    1588:	ee 23       	and	r30, r30
    158a:	11 f4       	brne	.+4      	; 0x1590 <dtoa_prf+0x154>
    158c:	40 e0       	ldi	r20, 0x00	; 0
    158e:	50 e0       	ldi	r21, 0x00	; 0
    1590:	18 16       	cp	r1, r24
    1592:	19 06       	cpc	r1, r25
    1594:	24 f4       	brge	.+8      	; 0x159e <dtoa_prf+0x162>
    1596:	bc 01       	movw	r22, r24
    1598:	6f 5f       	subi	r22, 0xFF	; 255
    159a:	7f 4f       	sbci	r23, 0xFF	; 255
    159c:	02 c0       	rjmp	.+4      	; 0x15a2 <dtoa_prf+0x166>
    159e:	61 e0       	ldi	r22, 0x01	; 1
    15a0:	70 e0       	ldi	r23, 0x00	; 0
    15a2:	64 0f       	add	r22, r20
    15a4:	75 1f       	adc	r23, r21
    15a6:	11 23       	and	r17, r17
    15a8:	29 f0       	breq	.+10     	; 0x15b4 <dtoa_prf+0x178>
    15aa:	41 2f       	mov	r20, r17
    15ac:	50 e0       	ldi	r21, 0x00	; 0
    15ae:	4f 5f       	subi	r20, 0xFF	; 255
    15b0:	5f 4f       	sbci	r21, 0xFF	; 255
    15b2:	02 c0       	rjmp	.+4      	; 0x15b8 <dtoa_prf+0x17c>
    15b4:	40 e0       	ldi	r20, 0x00	; 0
    15b6:	50 e0       	ldi	r21, 0x00	; 0
    15b8:	46 0f       	add	r20, r22
    15ba:	57 1f       	adc	r21, r23
    15bc:	6f 2d       	mov	r22, r15
    15be:	70 e0       	ldi	r23, 0x00	; 0
    15c0:	46 17       	cp	r20, r22
    15c2:	57 07       	cpc	r21, r23
    15c4:	1c f4       	brge	.+6      	; 0x15cc <dtoa_prf+0x190>
    15c6:	0f 2d       	mov	r16, r15
    15c8:	04 1b       	sub	r16, r20
    15ca:	01 c0       	rjmp	.+2      	; 0x15ce <dtoa_prf+0x192>
    15cc:	00 e0       	ldi	r16, 0x00	; 0
    15ce:	ff 24       	eor	r15, r15
    15d0:	a7 01       	movw	r20, r14
    15d2:	40 71       	andi	r20, 0x10	; 16
    15d4:	50 70       	andi	r21, 0x00	; 0
    15d6:	e4 fc       	sbrc	r14, 4
    15d8:	0d c0       	rjmp	.+26     	; 0x15f4 <dtoa_prf+0x1b8>
    15da:	e3 fc       	sbrc	r14, 3
    15dc:	0b c0       	rjmp	.+22     	; 0x15f4 <dtoa_prf+0x1b8>
    15de:	60 2f       	mov	r22, r16
    15e0:	d6 01       	movw	r26, r12
    15e2:	70 e2       	ldi	r23, 0x20	; 32
    15e4:	02 c0       	rjmp	.+4      	; 0x15ea <dtoa_prf+0x1ae>
    15e6:	7d 93       	st	X+, r23
    15e8:	61 50       	subi	r22, 0x01	; 1
    15ea:	66 23       	and	r22, r22
    15ec:	e1 f7       	brne	.-8      	; 0x15e6 <dtoa_prf+0x1aa>
    15ee:	c0 0e       	add	r12, r16
    15f0:	d1 1c       	adc	r13, r1
    15f2:	00 e0       	ldi	r16, 0x00	; 0
    15f4:	ee 23       	and	r30, r30
    15f6:	19 f0       	breq	.+6      	; 0x15fe <dtoa_prf+0x1c2>
    15f8:	d6 01       	movw	r26, r12
    15fa:	ed 93       	st	X+, r30
    15fc:	6d 01       	movw	r12, r26
    15fe:	41 15       	cp	r20, r1
    1600:	51 05       	cpc	r21, r1
    1602:	59 f4       	brne	.+22     	; 0x161a <dtoa_prf+0x1de>
    1604:	40 2f       	mov	r20, r16
    1606:	f6 01       	movw	r30, r12
    1608:	50 e3       	ldi	r21, 0x30	; 48
    160a:	02 c0       	rjmp	.+4      	; 0x1610 <dtoa_prf+0x1d4>
    160c:	51 93       	st	Z+, r21
    160e:	41 50       	subi	r20, 0x01	; 1
    1610:	44 23       	and	r20, r20
    1612:	e1 f7       	brne	.-8      	; 0x160c <dtoa_prf+0x1d0>
    1614:	c0 0e       	add	r12, r16
    1616:	d1 1c       	adc	r13, r1
    1618:	00 e0       	ldi	r16, 0x00	; 0
    161a:	b8 0e       	add	r11, r24
    161c:	fa 80       	ldd	r15, Y+2	; 0x02
    161e:	a9 01       	movw	r20, r18
    1620:	40 71       	andi	r20, 0x10	; 16
    1622:	50 70       	andi	r21, 0x00	; 0
    1624:	24 ff       	sbrs	r18, 4
    1626:	04 c0       	rjmp	.+8      	; 0x1630 <dtoa_prf+0x1f4>
    1628:	bf 2d       	mov	r27, r15
    162a:	b1 33       	cpi	r27, 0x31	; 49
    162c:	09 f4       	brne	.+2      	; 0x1630 <dtoa_prf+0x1f4>
    162e:	ba 94       	dec	r11
    1630:	1b 14       	cp	r1, r11
    1632:	2c f4       	brge	.+10     	; 0x163e <dtoa_prf+0x202>
    1634:	ab 2d       	mov	r26, r11
    1636:	a9 30       	cpi	r26, 0x09	; 9
    1638:	18 f0       	brcs	.+6      	; 0x1640 <dtoa_prf+0x204>
    163a:	a8 e0       	ldi	r26, 0x08	; 8
    163c:	01 c0       	rjmp	.+2      	; 0x1640 <dtoa_prf+0x204>
    163e:	a1 e0       	ldi	r26, 0x01	; 1
    1640:	9c 01       	movw	r18, r24
    1642:	97 ff       	sbrs	r25, 7
    1644:	02 c0       	rjmp	.+4      	; 0x164a <dtoa_prf+0x20e>
    1646:	20 e0       	ldi	r18, 0x00	; 0
    1648:	30 e0       	ldi	r19, 0x00	; 0
    164a:	bc 01       	movw	r22, r24
    164c:	6f 5f       	subi	r22, 0xFF	; 255
    164e:	7f 4f       	sbci	r23, 0xFF	; 255
    1650:	62 1b       	sub	r22, r18
    1652:	73 0b       	sbc	r23, r19
    1654:	fe 01       	movw	r30, r28
    1656:	31 96       	adiw	r30, 0x01	; 1
    1658:	e6 0f       	add	r30, r22
    165a:	f7 1f       	adc	r31, r23
    165c:	6e e2       	ldi	r22, 0x2E	; 46
    165e:	e6 2e       	mov	r14, r22
    1660:	bc 01       	movw	r22, r24
    1662:	6a 1b       	sub	r22, r26
    1664:	71 09       	sbc	r23, r1
    1666:	a1 2f       	mov	r26, r17
    1668:	b0 e0       	ldi	r27, 0x00	; 0
    166a:	aa 24       	eor	r10, r10
    166c:	bb 24       	eor	r11, r11
    166e:	aa 1a       	sub	r10, r26
    1670:	bb 0a       	sbc	r11, r27
    1672:	1f ef       	ldi	r17, 0xFF	; 255
    1674:	2f 3f       	cpi	r18, 0xFF	; 255
    1676:	31 07       	cpc	r19, r17
    1678:	19 f4       	brne	.+6      	; 0x1680 <dtoa_prf+0x244>
    167a:	d6 01       	movw	r26, r12
    167c:	ed 92       	st	X+, r14
    167e:	6d 01       	movw	r12, r26
    1680:	82 17       	cp	r24, r18
    1682:	93 07       	cpc	r25, r19
    1684:	2c f0       	brlt	.+10     	; 0x1690 <dtoa_prf+0x254>
    1686:	62 17       	cp	r22, r18
    1688:	73 07       	cpc	r23, r19
    168a:	14 f4       	brge	.+4      	; 0x1690 <dtoa_prf+0x254>
    168c:	10 81       	ld	r17, Z
    168e:	01 c0       	rjmp	.+2      	; 0x1692 <dtoa_prf+0x256>
    1690:	10 e3       	ldi	r17, 0x30	; 48
    1692:	21 50       	subi	r18, 0x01	; 1
    1694:	30 40       	sbci	r19, 0x00	; 0
    1696:	31 96       	adiw	r30, 0x01	; 1
    1698:	2a 15       	cp	r18, r10
    169a:	3b 05       	cpc	r19, r11
    169c:	24 f0       	brlt	.+8      	; 0x16a6 <dtoa_prf+0x26a>
    169e:	d6 01       	movw	r26, r12
    16a0:	1d 93       	st	X+, r17
    16a2:	6d 01       	movw	r12, r26
    16a4:	e6 cf       	rjmp	.-52     	; 0x1672 <dtoa_prf+0x236>
    16a6:	28 17       	cp	r18, r24
    16a8:	39 07       	cpc	r19, r25
    16aa:	49 f4       	brne	.+18     	; 0x16be <dtoa_prf+0x282>
    16ac:	bf 2d       	mov	r27, r15
    16ae:	b6 33       	cpi	r27, 0x36	; 54
    16b0:	28 f4       	brcc	.+10     	; 0x16bc <dtoa_prf+0x280>
    16b2:	b5 33       	cpi	r27, 0x35	; 53
    16b4:	21 f4       	brne	.+8      	; 0x16be <dtoa_prf+0x282>
    16b6:	41 15       	cp	r20, r1
    16b8:	51 05       	cpc	r21, r1
    16ba:	09 f4       	brne	.+2      	; 0x16be <dtoa_prf+0x282>
    16bc:	11 e3       	ldi	r17, 0x31	; 49
    16be:	f6 01       	movw	r30, r12
    16c0:	11 93       	st	Z+, r17
    16c2:	80 2f       	mov	r24, r16
    16c4:	df 01       	movw	r26, r30
    16c6:	90 e2       	ldi	r25, 0x20	; 32
    16c8:	02 c0       	rjmp	.+4      	; 0x16ce <dtoa_prf+0x292>
    16ca:	9d 93       	st	X+, r25
    16cc:	81 50       	subi	r24, 0x01	; 1
    16ce:	88 23       	and	r24, r24
    16d0:	e1 f7       	brne	.-8      	; 0x16ca <dtoa_prf+0x28e>
    16d2:	e0 0f       	add	r30, r16
    16d4:	f1 1d       	adc	r31, r1
    16d6:	10 82       	st	Z, r1
    16d8:	20 e0       	ldi	r18, 0x00	; 0
    16da:	30 e0       	ldi	r19, 0x00	; 0
    16dc:	c9 01       	movw	r24, r18
    16de:	29 96       	adiw	r28, 0x09	; 9
    16e0:	ea e0       	ldi	r30, 0x0A	; 10
    16e2:	78 ce       	rjmp	.-784    	; 0x13d4 <__epilogue_restores__+0x10>

000016e4 <__ftoa_engine>:
    16e4:	28 30       	cpi	r18, 0x08	; 8
    16e6:	08 f0       	brcs	.+2      	; 0x16ea <__ftoa_engine+0x6>
    16e8:	27 e0       	ldi	r18, 0x07	; 7
    16ea:	33 27       	eor	r19, r19
    16ec:	da 01       	movw	r26, r20
    16ee:	99 0f       	add	r25, r25
    16f0:	31 1d       	adc	r19, r1
    16f2:	87 fd       	sbrc	r24, 7
    16f4:	91 60       	ori	r25, 0x01	; 1
    16f6:	00 96       	adiw	r24, 0x00	; 0
    16f8:	61 05       	cpc	r22, r1
    16fa:	71 05       	cpc	r23, r1
    16fc:	39 f4       	brne	.+14     	; 0x170c <__ftoa_engine+0x28>
    16fe:	32 60       	ori	r19, 0x02	; 2
    1700:	2e 5f       	subi	r18, 0xFE	; 254
    1702:	3d 93       	st	X+, r19
    1704:	30 e3       	ldi	r19, 0x30	; 48
    1706:	2a 95       	dec	r18
    1708:	e1 f7       	brne	.-8      	; 0x1702 <__ftoa_engine+0x1e>
    170a:	08 95       	ret
    170c:	9f 3f       	cpi	r25, 0xFF	; 255
    170e:	30 f0       	brcs	.+12     	; 0x171c <__ftoa_engine+0x38>
    1710:	80 38       	cpi	r24, 0x80	; 128
    1712:	71 05       	cpc	r23, r1
    1714:	61 05       	cpc	r22, r1
    1716:	09 f0       	breq	.+2      	; 0x171a <__ftoa_engine+0x36>
    1718:	3c 5f       	subi	r19, 0xFC	; 252
    171a:	3c 5f       	subi	r19, 0xFC	; 252
    171c:	3d 93       	st	X+, r19
    171e:	91 30       	cpi	r25, 0x01	; 1
    1720:	08 f0       	brcs	.+2      	; 0x1724 <__ftoa_engine+0x40>
    1722:	80 68       	ori	r24, 0x80	; 128
    1724:	91 1d       	adc	r25, r1
    1726:	df 93       	push	r29
    1728:	cf 93       	push	r28
    172a:	1f 93       	push	r17
    172c:	0f 93       	push	r16
    172e:	ff 92       	push	r15
    1730:	ef 92       	push	r14
    1732:	19 2f       	mov	r17, r25
    1734:	98 7f       	andi	r25, 0xF8	; 248
    1736:	96 95       	lsr	r25
    1738:	e9 2f       	mov	r30, r25
    173a:	96 95       	lsr	r25
    173c:	96 95       	lsr	r25
    173e:	e9 0f       	add	r30, r25
    1740:	ff 27       	eor	r31, r31
    1742:	e4 58       	subi	r30, 0x84	; 132
    1744:	ff 4f       	sbci	r31, 0xFF	; 255
    1746:	99 27       	eor	r25, r25
    1748:	33 27       	eor	r19, r19
    174a:	ee 24       	eor	r14, r14
    174c:	ff 24       	eor	r15, r15
    174e:	a7 01       	movw	r20, r14
    1750:	e7 01       	movw	r28, r14
    1752:	05 90       	lpm	r0, Z+
    1754:	08 94       	sec
    1756:	07 94       	ror	r0
    1758:	28 f4       	brcc	.+10     	; 0x1764 <__ftoa_engine+0x80>
    175a:	36 0f       	add	r19, r22
    175c:	e7 1e       	adc	r14, r23
    175e:	f8 1e       	adc	r15, r24
    1760:	49 1f       	adc	r20, r25
    1762:	51 1d       	adc	r21, r1
    1764:	66 0f       	add	r22, r22
    1766:	77 1f       	adc	r23, r23
    1768:	88 1f       	adc	r24, r24
    176a:	99 1f       	adc	r25, r25
    176c:	06 94       	lsr	r0
    176e:	a1 f7       	brne	.-24     	; 0x1758 <__ftoa_engine+0x74>
    1770:	05 90       	lpm	r0, Z+
    1772:	07 94       	ror	r0
    1774:	28 f4       	brcc	.+10     	; 0x1780 <__ftoa_engine+0x9c>
    1776:	e7 0e       	add	r14, r23
    1778:	f8 1e       	adc	r15, r24
    177a:	49 1f       	adc	r20, r25
    177c:	56 1f       	adc	r21, r22
    177e:	c1 1d       	adc	r28, r1
    1780:	77 0f       	add	r23, r23
    1782:	88 1f       	adc	r24, r24
    1784:	99 1f       	adc	r25, r25
    1786:	66 1f       	adc	r22, r22
    1788:	06 94       	lsr	r0
    178a:	a1 f7       	brne	.-24     	; 0x1774 <__ftoa_engine+0x90>
    178c:	05 90       	lpm	r0, Z+
    178e:	07 94       	ror	r0
    1790:	28 f4       	brcc	.+10     	; 0x179c <__ftoa_engine+0xb8>
    1792:	f8 0e       	add	r15, r24
    1794:	49 1f       	adc	r20, r25
    1796:	56 1f       	adc	r21, r22
    1798:	c7 1f       	adc	r28, r23
    179a:	d1 1d       	adc	r29, r1
    179c:	88 0f       	add	r24, r24
    179e:	99 1f       	adc	r25, r25
    17a0:	66 1f       	adc	r22, r22
    17a2:	77 1f       	adc	r23, r23
    17a4:	06 94       	lsr	r0
    17a6:	a1 f7       	brne	.-24     	; 0x1790 <__ftoa_engine+0xac>
    17a8:	05 90       	lpm	r0, Z+
    17aa:	07 94       	ror	r0
    17ac:	20 f4       	brcc	.+8      	; 0x17b6 <__ftoa_engine+0xd2>
    17ae:	49 0f       	add	r20, r25
    17b0:	56 1f       	adc	r21, r22
    17b2:	c7 1f       	adc	r28, r23
    17b4:	d8 1f       	adc	r29, r24
    17b6:	99 0f       	add	r25, r25
    17b8:	66 1f       	adc	r22, r22
    17ba:	77 1f       	adc	r23, r23
    17bc:	88 1f       	adc	r24, r24
    17be:	06 94       	lsr	r0
    17c0:	a9 f7       	brne	.-22     	; 0x17ac <__ftoa_engine+0xc8>
    17c2:	84 91       	lpm	r24, Z+
    17c4:	10 95       	com	r17
    17c6:	17 70       	andi	r17, 0x07	; 7
    17c8:	41 f0       	breq	.+16     	; 0x17da <__ftoa_engine+0xf6>
    17ca:	d6 95       	lsr	r29
    17cc:	c7 95       	ror	r28
    17ce:	57 95       	ror	r21
    17d0:	47 95       	ror	r20
    17d2:	f7 94       	ror	r15
    17d4:	e7 94       	ror	r14
    17d6:	1a 95       	dec	r17
    17d8:	c1 f7       	brne	.-16     	; 0x17ca <__ftoa_engine+0xe6>
    17da:	e2 e2       	ldi	r30, 0x22	; 34
    17dc:	f0 e0       	ldi	r31, 0x00	; 0
    17de:	68 94       	set
    17e0:	15 90       	lpm	r1, Z+
    17e2:	15 91       	lpm	r17, Z+
    17e4:	35 91       	lpm	r19, Z+
    17e6:	65 91       	lpm	r22, Z+
    17e8:	95 91       	lpm	r25, Z+
    17ea:	05 90       	lpm	r0, Z+
    17ec:	7f e2       	ldi	r23, 0x2F	; 47
    17ee:	73 95       	inc	r23
    17f0:	e1 18       	sub	r14, r1
    17f2:	f1 0a       	sbc	r15, r17
    17f4:	43 0b       	sbc	r20, r19
    17f6:	56 0b       	sbc	r21, r22
    17f8:	c9 0b       	sbc	r28, r25
    17fa:	d0 09       	sbc	r29, r0
    17fc:	c0 f7       	brcc	.-16     	; 0x17ee <__ftoa_engine+0x10a>
    17fe:	e1 0c       	add	r14, r1
    1800:	f1 1e       	adc	r15, r17
    1802:	43 1f       	adc	r20, r19
    1804:	56 1f       	adc	r21, r22
    1806:	c9 1f       	adc	r28, r25
    1808:	d0 1d       	adc	r29, r0
    180a:	7e f4       	brtc	.+30     	; 0x182a <__ftoa_engine+0x146>
    180c:	70 33       	cpi	r23, 0x30	; 48
    180e:	11 f4       	brne	.+4      	; 0x1814 <__ftoa_engine+0x130>
    1810:	8a 95       	dec	r24
    1812:	e6 cf       	rjmp	.-52     	; 0x17e0 <__ftoa_engine+0xfc>
    1814:	e8 94       	clt
    1816:	01 50       	subi	r16, 0x01	; 1
    1818:	30 f0       	brcs	.+12     	; 0x1826 <__ftoa_engine+0x142>
    181a:	08 0f       	add	r16, r24
    181c:	0a f4       	brpl	.+2      	; 0x1820 <__ftoa_engine+0x13c>
    181e:	00 27       	eor	r16, r16
    1820:	02 17       	cp	r16, r18
    1822:	08 f4       	brcc	.+2      	; 0x1826 <__ftoa_engine+0x142>
    1824:	20 2f       	mov	r18, r16
    1826:	23 95       	inc	r18
    1828:	02 2f       	mov	r16, r18
    182a:	7a 33       	cpi	r23, 0x3A	; 58
    182c:	28 f0       	brcs	.+10     	; 0x1838 <__ftoa_engine+0x154>
    182e:	79 e3       	ldi	r23, 0x39	; 57
    1830:	7d 93       	st	X+, r23
    1832:	2a 95       	dec	r18
    1834:	e9 f7       	brne	.-6      	; 0x1830 <__ftoa_engine+0x14c>
    1836:	10 c0       	rjmp	.+32     	; 0x1858 <__ftoa_engine+0x174>
    1838:	7d 93       	st	X+, r23
    183a:	2a 95       	dec	r18
    183c:	89 f6       	brne	.-94     	; 0x17e0 <__ftoa_engine+0xfc>
    183e:	06 94       	lsr	r0
    1840:	97 95       	ror	r25
    1842:	67 95       	ror	r22
    1844:	37 95       	ror	r19
    1846:	17 95       	ror	r17
    1848:	17 94       	ror	r1
    184a:	e1 18       	sub	r14, r1
    184c:	f1 0a       	sbc	r15, r17
    184e:	43 0b       	sbc	r20, r19
    1850:	56 0b       	sbc	r21, r22
    1852:	c9 0b       	sbc	r28, r25
    1854:	d0 09       	sbc	r29, r0
    1856:	98 f0       	brcs	.+38     	; 0x187e <__ftoa_engine+0x19a>
    1858:	23 95       	inc	r18
    185a:	7e 91       	ld	r23, -X
    185c:	73 95       	inc	r23
    185e:	7a 33       	cpi	r23, 0x3A	; 58
    1860:	08 f0       	brcs	.+2      	; 0x1864 <__ftoa_engine+0x180>
    1862:	70 e3       	ldi	r23, 0x30	; 48
    1864:	7c 93       	st	X, r23
    1866:	20 13       	cpse	r18, r16
    1868:	b8 f7       	brcc	.-18     	; 0x1858 <__ftoa_engine+0x174>
    186a:	7e 91       	ld	r23, -X
    186c:	70 61       	ori	r23, 0x10	; 16
    186e:	7d 93       	st	X+, r23
    1870:	30 f0       	brcs	.+12     	; 0x187e <__ftoa_engine+0x19a>
    1872:	83 95       	inc	r24
    1874:	71 e3       	ldi	r23, 0x31	; 49
    1876:	7d 93       	st	X+, r23
    1878:	70 e3       	ldi	r23, 0x30	; 48
    187a:	2a 95       	dec	r18
    187c:	e1 f7       	brne	.-8      	; 0x1876 <__ftoa_engine+0x192>
    187e:	11 24       	eor	r1, r1
    1880:	ef 90       	pop	r14
    1882:	ff 90       	pop	r15
    1884:	0f 91       	pop	r16
    1886:	1f 91       	pop	r17
    1888:	cf 91       	pop	r28
    188a:	df 91       	pop	r29
    188c:	99 27       	eor	r25, r25
    188e:	87 fd       	sbrc	r24, 7
    1890:	90 95       	com	r25
    1892:	08 95       	ret

00001894 <_exit>:
    1894:	f8 94       	cli

00001896 <__stop_program>:
    1896:	ff cf       	rjmp	.-2      	; 0x1896 <__stop_program>
